
build/kernel8.elf:     file format elf64-littleaarch64

Contents of section .text.boot:
 2080000 40050058 001018d5 00103cd5 00f86692  @..X......<...f.
 2080010 00101cd5 e0040058 00111cd5 e0040058  .......X.......X
 2080020 00401cd5 60000010 20401cd5 e0039fd6  .@..`... @......
 2080030 806f0010 e16f0010 210000cb 46030094  .o...o..!...F...
 2080040 00040058 1fec7c92 2c030094 00000014  ...X..|.,.......
 2080050 800080d2 40e6bff2 010040b9 bf3f03d5  ....@.....@..?..
 2080060 21741612 bf3f03d5 930080d2 010000b9  !t...?..........
 2080070 53eebff2 610240b9 bf3f03d5 21001332  S...a.@..?..!..2
 2080080 bf3f03d5 54eebfd2 610200b9 810240b9  .?..T...a.....@.
 2080090 bf3f03d5 21001332 bf3f03d5 810200b9  .?..!..2.?......
 20800a0 bf3f03d5 c0035fd6 0008d030 00000000  .?...._....0....
 20800b0 00000080 00000000 c5010000 00000000  ................
 20800c0 00000812 00000000                    ........        
Contents of section .text:
 20800c8 ffc300d1 e01f00b9 e11b00b9 e21700b9  ................
 20800d8 e30700f9 ff2f00b9 20008052 e02b00b9  ...../.. ..R.+..
 20800e8 05000014 e12b40b9 e01b40b9 207c001b  .....+@...@. |..
 20800f8 e02b00b9 e11f40b9 e02b40b9 2008c01a  .+....@..+@. ...
 2080108 e11b40b9 3f00006b e9feff54 2f000014  ..@.?..k...T/...
 2080118 e11f40b9 e02b40b9 2008c01a e02700b9  ..@..+@. ....'..
 2080128 e01f40b9 e12b40b9 0208c11a e12b40b9  ..@..+@......+@.
 2080138 417c011b 0000014b e01f00b9 e12b40b9  A|.....K.....+@.
 2080148 e01b40b9 2008c01a e02b00b9 e02f40b9  ..@. ....+.../@.
 2080158 1f000071 e1000054 e02740b9 1f000071  ...q...T.'@....q
 2080168 8c000054 e02b40b9 1f000071 e1020054  ...T.+@....q...T
 2080178 e02740b9 1f240071 0d010054 e01740b9  .'@..$.q...T..@.
 2080188 1f000071 60000054 e0068052 04000014  ...q`..T...R....
 2080198 e00a8052 02000014 00068052 e12740b9  ...R.......R.'@.
 20801a8 221c0012 e10740f9 23040091 e30700f9  ".....@.#.......
 20801b8 0000020b 001c0012 20000039 e02f40b9  ........ ..9./@.
 20801c8 00040011 e02f00b9 e02b40b9 1f000071  ...../...+@....q
 20801d8 01faff54 e00740f9 1f000039 1f2003d5  ...T..@....9. ..
 20801e8 ffc30091 c0035fd6 fd7bbea9 fd030091  ......_..{......
 20801f8 a01f00b9 a10b00f9 a01f40b9 1f000071  ..........@....q
 2080208 2a010054 a01f40b9 e003004b a01f00b9  *..T..@....K....
 2080218 a00b40f9 01040091 a10b00f9 a1058052  ..@............R
 2080228 01000039 a01f40b9 a30b40f9 02008052  ...9..@...@....R
 2080238 41018052 a3ffff97 1f2003d5 fd7bc2a8  A..R..... ...{..
 2080248 c0035fd6 ff4300d1 e03f0039 e03f4039  .._..C...?.9.?@9
 2080258 1fbc0071 e9000054 e03f4039 1fe40071  ...q...T.?@9...q
 2080268 88000054 e03f4039 00c00051 14000014  ...T.?@9...Q....
 2080278 e03f4039 1f800171 e9000054 e03f4039  .?@9...q...T.?@9
 2080288 1f980171 88000054 e03f4039 005c0151  ...q...T.?@9.\.Q
 2080298 0b000014 e03f4039 1f000171 e9000054  .....?@9...q...T
 20802a8 e03f4039 1f180171 88000054 e03f4039  .?@9...q...T.?@9
 20802b8 00dc0051 02000014 00008012 ff430091  ...Q.........C..
 20802c8 c0035fd6 fd7bbca9 fd030091 a0bf0039  .._..{.........9
 20802d8 a11300f9 a22b00b9 a30f00f9 a01340f9  .....+........@.
 20802e8 000040f9 a01f00f9 bf3700b9 10000014  ..@......7......
 20802f8 a13340b9 a02b40b9 3f00006b 6c020054  .3@..+@.?..kl..T
 2080308 a13740b9 a02b40b9 207c001b a13340b9  .7@..+@. |...3@.
 2080318 2000000b a03700b9 a01f40f9 01040091   ....7....@.....
 2080328 a11f00f9 00004039 a0bf0039 a0bf4039  ......@9...9..@9
 2080338 c5ffff97 a03300b9 a03340b9 1f000071  .....3...3@....q
 2080348 8afdff54 02000014 1f2003d5 a01340f9  ...T..... ....@.
 2080358 a11f40f9 010000f9 a00f40f9 a13740b9  ..@.......@..7@.
 2080368 010000b9 a0bf4039 fd7bc4a8 c0035fd6  ......@9.{...._.
 2080378 fd7bbca9 fd030091 a01700f9 a11300f9  .{..............
 2080388 a21f00b9 a36f0039 a40b00f9 a06f4039  .....o.9.....o@9
 2080398 1f000071 60000054 00068052 02000014  ...q`..T...R....
 20803a8 00048052 a0df0039 a00b40f9 a01f00f9  ...R...9..@.....
 20803b8 04000014 a01f40b9 00040051 a01f00b9  ......@....Q....
 20803c8 a01f40f9 01040091 a11f00f9 00004039  ..@...........@9
 20803d8 1f000071 20010054 a01f40b9 1f000071  ...q ..T..@....q
 20803e8 acfeff54 05000014 a21340f9 a1df4039  ...T......@...@9
 20803f8 a01740f9 40003fd6 a01f40b9 01040051  ..@.@.?...@....Q
 2080408 a11f00b9 1f000071 0cffff54 05000014  .......q...T....
 2080418 a21340f9 a1db4039 a01740f9 40003fd6  ..@...@9..@.@.?.
 2080428 a00b40f9 01040091 a10b00f9 00004039  ..@...........@9
 2080438 a0db0039 a0db4039 1f000071 a1feff54  ...9..@9...q...T
 2080448 1f2003d5 fd7bc4a8 c0035fd6 fd7bbaa9  . ...{...._..{..
 2080458 fd030091 f30b00f9 a01f00f9 a11b00f9  ................
 2080468 a21700f9 f30303aa fd000014 a07f4139  ..............A9
 2080478 1f940071 c0000054 a21b40f9 a17f4139  ...q...T..@...A9
 2080488 a01f40f9 40003fd6 f5000014 bf7b0139  ..@.@.?......{.9
 2080498 bf4f00b9 a01740f9 01040091 a11700f9  .O....@.........
 20804a8 00004039 a07f0139 a07f4139 1fc00071  ..@9...9..A9...q
 20804b8 01010054 a01740f9 01040091 a11700f9  ...T..@.........
 20804c8 00004039 a07f0139 20008052 a07b0139  ..@9...9 ..R.{.9
 20804d8 a07f4139 1fbc0071 89010054 a07f4139  ..A9...q...T..A9
 20804e8 1fe40071 28010054 a1330191 a0a30091  ...q(..T.3......
 20804f8 e30301aa 42018052 e10300aa a07f4139  ....B..R......A9
 2080508 71ffff97 a07f0139 a07f4139 1f8c0171  q......9..A9...q
 2080518 c0110054 1f8c0171 0c010054 1f940071  ...T...q...T...q
 2080528 40190054 1f600171 600b0054 1f000071  @..T.`.q`..T...q
 2080538 801a0054 c9000014 1fcc0171 40140054  ...T.......q@..T
 2080548 1fcc0171 8c000054 1f900171 c0050054  ...q...T...q...T
 2080558 c2000014 1fd40171 80000054 1fe00171  .......q...T...q
 2080568 a0090054 bd000014 601a40b9 610240f9  ...T....`.@.a.@.
 2080578 1f000071 eb000054 e00301aa 002c0091  ...q...T.....,..
 2080588 00f07d92 600200f9 e00301aa 0f000014  ..}.`...........
 2080598 02200011 621a00b9 621a40b9 5f000071  . ..b...b.@._..q
 20805a8 ed000054 e00301aa 002c0091 00f07d92  ...T.....,....}.
 20805b8 600200f9 e00301aa 04000014 610640f9  `...........a.@.
 20805c8 007c4093 2000008b 000040b9 a1430191  .|@. .....@..C..
 20805d8 e30301aa 02008052 41018052 b9feff97  .......RA..R....
 20805e8 a04f40b9 a1430191 e40301aa a37b4139  .O@..C.......{A9
 20805f8 e203002a a11b40f9 a01f40f9 5dffff97  ...*..@...@.]...
 2080608 97000014 601a40b9 610240f9 1f000071  ....`.@.a.@....q
 2080618 eb000054 e00301aa 002c0091 00f07d92  ...T.....,....}.
 2080628 600200f9 e00301aa 0f000014 02200011  `............ ..
 2080638 621a00b9 621a40b9 5f000071 ed000054  b...b.@._..q...T
 2080648 e00301aa 002c0091 00f07d92 600200f9  .....,....}.`...
 2080658 e00301aa 04000014 610640f9 007c4093  ........a.@..|@.
 2080668 2000008b 000040b9 a1430191 dffeff97   .....@..C......
 2080678 a04f40b9 a1430191 e40301aa a37b4139  .O@..C.......{A9
 2080688 e203002a a11b40f9 a01f40f9 39ffff97  ...*..@...@.9...
 2080698 73000014 601a40b9 610240f9 1f000071  s...`.@.a.@....q
 20806a8 eb000054 e00301aa 002c0091 00f07d92  ...T.....,....}.
 20806b8 600200f9 e00301aa 0f000014 02200011  `............ ..
 20806c8 621a00b9 621a40b9 5f000071 ed000054  b...b.@._..q...T
 20806d8 e00301aa 002c0091 00f07d92 600200f9  .....,....}.`...
 20806e8 e00301aa 04000014 610640f9 007c4093  ........a.@..|@.
 20806f8 2000008b 040040b9 a07f4139 1f600171   .....@...A9.`.q
 2080708 e0179f1a 001c0012 e103002a a0430191  ...........*.C..
 2080718 e30300aa e203012a 01028052 e003042a  .......*...R...*
 2080728 68feff97 a04f40b9 a1430191 e40301aa  h....O@..C......
 2080738 a37b4139 e203002a a11b40f9 a01f40f9  .{A9...*..@...@.
 2080748 0cffff97 46000014 601a40b9 610240f9  ....F...`.@.a.@.
 2080758 1f000071 eb000054 e00301aa 002c0091  ...q...T.....,..
 2080768 00f07d92 600200f9 e00301aa 0f000014  ..}.`...........
 2080778 02200011 621a00b9 621a40b9 5f000071  . ..b...b.@._..q
 2080788 ed000054 e00301aa 002c0091 00f07d92  ...T.....,....}.
 2080798 600200f9 e00301aa 04000014 610640f9  `...........a.@.
 20807a8 007c4093 2000008b 000040b9 001c0012  .|@. .....@.....
 20807b8 a21b40f9 e103002a a01f40f9 40003fd6  ..@....*..@.@.?.
 20807c8 27000014 a54f40b9 601a40b9 610240f9  '....O@.`.@.a.@.
 20807d8 1f000071 eb000054 e00301aa 003c0091  ...q...T.....<..
 20807e8 00f07d92 600200f9 e00301aa 0f000014  ..}.`...........
 20807f8 02200011 621a00b9 621a40b9 5f000071  . ..b...b.@._..q
 2080808 ed000054 e00301aa 003c0091 00f07d92  ...T.....<....}.
 2080818 600200f9 e00301aa 04000014 610640f9  `...........a.@.
 2080828 007c4093 2000008b 000040f9 e40300aa  .|@. .....@.....
 2080838 03008052 e203052a a11b40f9 a01f40f9  ...R...*..@...@.
 2080848 ccfeff97 06000014 a21b40f9 a17f4139  ..........@...A9
 2080858 a01f40f9 40003fd6 1f2003d5 a01740f9  ..@.@.?.. ....@.
 2080868 01040091 a11700f9 00004039 a07f0139  ..........@9...9
 2080878 a07f4139 1f000071 a1dfff54 02000014  ..A9...q...T....
 2080888 1f2003d5 1f2003d5 f30b40f9 fd7bc6a8  . ... ....@..{..
 2080898 c0035fd6 ff4300d1 e00700f9 e10300f9  .._..C..........
 20808a8 00000090 00803891 e10340f9 010000f9  ......8...@.....
 20808b8 00000090 00a03891 e10740f9 010000f9  ......8...@.....
 20808c8 1f2003d5 ff430091 c0035fd6 fd7bb6a9  . ...C...._..{..
 20808d8 fd030091 a01f00f9 a13700f9 a23b00f9  .........7...;..
 20808e8 a33f00f9 a44300f9 a54700f9 a64b00f9  .?...C...G...K..
 20808f8 a74f00f9 a0830291 a02300f9 a0830291  .O.......#......
 2080908 a02700f9 a0830191 a02b00f9 e0068012  .'.......+......
 2080918 a05b00b9 bf5f00b9 00000090 00a03891  .[..._........8.
 2080928 040040f9 00000090 00803891 050040f9  ..@.......8...@.
 2080938 a2430091 a3030191 600440a9 400400a9  .C......`.@.@...
 2080948 600441a9 400401a9 a0430091 e30300aa  `.A.@....C......
 2080958 a21f40f9 e10305aa e00304aa bcfeff97  ..@.............
 2080968 1f2003d5 fd7bcaa8 c0035fd6 ff4300d1  . ...{...._..C..
 2080978 e00700f9 e11f0039 e00740f9 000040f9  .......9..@...@.
 2080988 02040091 e10740f9 220000f9 e11f4039  ......@.".....@9
 2080998 01000039 1f2003d5 ff430091 c0035fd6  ...9. ...C...._.
 20809a8 fd7bb7a9 fd030091 a01f00f9 a11b00f9  .{..............
 20809b8 a23300f9 a33700f9 a43b00f9 a53f00f9  .3...7...;...?..
 20809c8 a64300f9 a74700f9 a0430291 a02300f9  .C...G...C...#..
 20809d8 a0430291 a02700f9 a0830191 a02b00f9  .C...'.......+..
 20809e8 e0058012 a05b00b9 bf5f00b9 a2430091  .....[..._...C..
 20809f8 a3030191 600440a9 400400a9 600441a9  ....`.@.@...`.A.
 2080a08 400401a9 a2430091 00000090 01d02591  @....C........%.
 2080a18 a0e30091 e30302aa a21b40f9 8cfeff97  ..........@.....
 2080a28 a0e30091 01008052 d1ffff97 1f2003d5  .......R..... ..
 2080a38 fd7bc9a8 c0035fd6 fd7bbea9 fd030091  .{...._..{......
 2080a48 a07f0039 1f2003d5 800280d2 40e3bff2  ...9. ......@...
 2080a58 c7000094 00001b12 1f000071 60ffff54  ...........q`..T
 2080a68 a07f4039 e103002a 40e3bfd2 bd000094  ..@9...*@.......
 2080a78 1f2003d5 fd7bc2a8 c0035fd6 fd7bbfa9  . ...{...._..{..
 2080a88 fd030091 800280d2 40e3bff2 b8000094  ........@.......
 2080a98 00000012 1f000071 41000054 faffff17  .......qA..T....
 2080aa8 1f2003d5 40e3bfd2 b1000094 001c0012  . ..@...........
 2080ab8 fd7bc1a8 c0035fd6 fd7bbda9 fd030091  .{...._..{......
 2080ac8 a00f00f9 10000014 a00f40f9 00004039  ..........@...@9
 2080ad8 1f280071 81000054 a0018052 a0bf0039  .(.q...T...R...9
 2080ae8 04000014 a00f40f9 00004039 a0bf0039  ......@...@9...9
 2080af8 a0bf4039 d1ffff97 a00f40f9 00040091  ..@9......@.....
 2080b08 a00f00f9 a00f40f9 00004039 1f000071  ......@...@9...q
 2080b18 c1fdff54 1f2003d5 fd7bc3a8 c0035fd6  ...T. ...{...._.
 2080b28 fd7bbea9 fd030091 00059cd2 e0eebff2  .{..............
 2080b38 8f000094 a01f00b9 a01f40b9 006c1612  ..........@..l..
 2080b48 a01f00b9 a11f40b9 00288052 2000002a  ......@..(.R ..*
 2080b58 a01f00b9 01288052 0178a072 00059cd2  .....(.R.x.r....
 2080b68 e0eebff2 7f000094 80439cd2 e0eebff2  .........C......
 2080b78 7f000094 a01f00b9 a01f40b9 00741412  ..........@..t..
 2080b88 a01f00b9 a01f40b9 00001532 a01f00b9  ......@....2....
 2080b98 a11f40b9 80439cd2 e0eebff2 71000094  ..@..C......q...
 2080ba8 01008052 800080d2 40e3bff2 6d000094  ...R....@...m...
 2080bb8 61008052 000280d2 40e3bff2 69000094  a..R....@...i...
 2080bc8 e1008052 000180d2 40e3bff2 65000094  ...R....@...e...
 2080bd8 61108052 800180d2 40e3bff2 61000094  a..R....@...a...
 2080be8 21008052 40e3bfd2 5e000094 01008052  !..R@...^......R
 2080bf8 800080d2 40e3bff2 5a000094 61008052  ....@...Z...a..R
 2080c08 800180d2 40e3bff2 56000094 61008052  ....@...V...a..R
 2080c18 000280d2 40e3bff2 52000094 1f2003d5  ....@...R.... ..
 2080c28 fd7bc2a8 c0035fd6 fd7bbea9 fd030091  .{...._..{......
 2080c38 a00f00f9 a15f0039 a05f4039 7fffff97  ....._.9._@9....
 2080c48 1f2003d5 fd7bc2a8 c0035fd6 fd7bbea9  . ...{...._..{..
 2080c58 fd030091 800080d2 40e6bff2 44000094  ........@...D...
 2080c68 a01f00b9 a01f40b9 00741612 a01f00b9  ......@..t......
 2080c78 a11f40b9 800080d2 40e6bff2 39000094  ..@.....@...9...
 2080c88 1f2003d5 fd7bc2a8 c0035fd6 fd7bbea9  . ...{...._..{..
 2080c98 fd030091 800080d2 40eebff2 34000094  ........@...4...
 2080ca8 a01f00b9 a01f40b9 00001332 a01f00b9  ......@....2....
 2080cb8 a11f40b9 800080d2 40eebff2 29000094  ..@.....@...)...
 2080cc8 40eebfd2 2a000094 a01f00b9 a01f40b9  @...*.........@.
 2080cd8 00001332 a01f00b9 a11f40b9 40eebfd2  ...2......@.@...
 2080ce8 20000094 1f2003d5 fd7bc2a8 c0035fd6   .... ...{...._.
 2080cf8 fd7bbea9 fd030091 00000090 000047f9  .{............G.
 2080d08 e10300aa 000080d2 e3feff97 1b000094  ................
 2080d18 a01f00b9 00000090 00403791 a11f40b9  .........@7...@.
 2080d28 ebfeff97 caffff97 d9ffff97 7dffff97  ............}...
 2080d38 00000090 00a03791 60ffff97 50ffff97  ......7.`...P...
 2080d48 001c0012 3dffff97 fdffff17 1f8400f8  ....=...........
 2080d58 212000f1 ccffff54 c0035fd6 00000000  ! .....T.._.....
 2080d68 bf3f03d5 010000b9 c0035fd6 000040b9  .?........_...@.
 2080d78 bf3f03d5 c0035fd6 404238d5 00fc42d3  .?...._.@B8...B.
 2080d88 c0035fd6 60010058 001018d5 00103cd5  .._.`..X......<.
 2080d98 00f86692 00101cd5 00010058 00111cd5  ..f........X....
 2080da8 00010058 00401cd5 3e401cd5 e0039fd6  ...X.@..>@......
 2080db8 0008d030 00000000 00000080 00000000  ...0............
 2080dc8 c5010000 00000000                    ........        
Contents of section .rodata:
 2080dd0 45786365 7074696f 6e206c65 76656c3a  Exception level:
 2080de0 20256420 0d0a0000 48656c6c 6f2c2077   %d ....Hello, w
 2080df0 6f726c64 210a00                      orld!..         
Contents of section .got:
 2080df8 00000000 00000000 300c0802 00000000  ........0.......
Contents of section .got.plt:
 2080e08 00000000 00000000 00000000 00000000  ................
 2080e18 00000000 00000000                    ........        
Contents of section .debug_info:
 0000 96040000 04000000 00000801 20000000  ............ ...
 0010 0cb40000 001a0100 00c80008 02000000  ................
 0020 00780900 00000000 00000000 00026f00  .x............o.
 0030 00000228 38000000 03f20000 00200300  ...(8........ ..
 0040 77000000 04500100 00770000 0000040c  w....P...w......
 0050 00000077 00000008 040b0100 00770000  ...w.........w..
 0060 001004cd 00000079 00000018 04fc0000  .......y........
 0070 00790000 001c0005 08060405 696e7400  .y..........int.
 0080 02f40000 0002632d 00000002 7e000000  ......c-....~...
 0090 01189600 00000708 9c000000 08ac0000  ................
 00a0 00097700 000009ac 00000000 0a0108e2  ..w.............
 00b0 0000000b 84000000 01198b00 00000903  ................
 00c0 200e0802 00000000 0b000000 00011a77   ..............w
 00d0 00000009 03280e08 02000000 000cc100  .....(..........
 00e0 000001e2 a8090802 00000000 98000000  ................
 00f0 00000000 019c2601 00000d73 0001e226  ......&....s...&
 0100 01000003 91a87f0d 666d7400 01e22601  ........fmt...&.
 0110 00000391 a07f0e0f 76610001 e4800000  ........va......
 0120 000391b0 7f000708 ac000000 10a20000  ................
 0130 0001db74 09080200 00000034 00000000  ...t.......4....
 0140 00000001 9c620100 000d7000 01db7700  .....b....p...w.
 0150 00000291 780d6300 01dbac00 00000291  ....x.c.........
 0160 77000ce7 00000001 d3d40808 02000000  w...............
 0170 00a00000 00000000 00019c9e 0100000d  ................
 0180 666d7400 01d32601 00000391 987f0e0f  fmt...&.........
 0190 76610001 d5800000 000391a0 7f0011a8  va..............
 01a0 00000001 cd9c0808 02000000 00380000  .............8..
 01b0 00000000 00019cd8 01000012 07000000  ................
 01c0 01cd7700 00000291 78128b00 000001cd  ..w.....x.......
 01d0 96000000 02917000 0c150000 00017e54  ......p.......~T
 01e0 04080200 00000048 04000000 00000001  .......H........
 01f0 9c750200 00120700 0000017e 77000000  .u.........~w...
 0200 02915812 8b000000 017e8b00 00000291  ..X......~......
 0210 500d666d 7400017e 26010000 0291480d  P.fmt..~&.....H.
 0220 76610001 7e800000 00028300 0f626600  va..~........bf.
 0230 01807502 00000291 700f6368 000182ac  ..u.....p.ch....
 0240 00000002 917f1314 01000001 c98c0808  ................
 0250 02000000 00140000 00000f6c 7a000189  ...........lz...
 0260 ac000000 02917e0f 7700018d 79000000  ......~.w...y...
 0270 02916c00 0015ac00 00008502 00001685  ..l.............
 0280 0200000b 000a0807 90000000 17580100  .............X..
 0290 00017178 03080200 000000dc 00000000  ..qx............
 02a0 00000001 9c110300 00120700 00000171  ...............q
 02b0 77000000 02916812 8b000000 01718b00  w.....h......q..
 02c0 00000291 600d6e00 01717900 00000291  ....`.n..qy.....
 02d0 5c0d7a00 0171ac00 00000291 5b0d6266  \.z..q......[.bf
 02e0 00017126 01000002 91500f66 63000173  ..q&.....P.fc..s
 02f0 ac000000 0291770f 63680001 74ac0000  ......w.ch..t...
 0300 00029176 0f700001 75260100 00029178  ...v.p..u&.....x
 0310 00186132 69000162 ac000000 cc020802  ..a2i..b........
 0320 00000000 ac000000 00000000 019c9203  ................
 0330 00000d63 68000162 ac000000 02916f0d  ...ch..b......o.
 0340 73726300 01629203 00000291 6012d700  src..b......`...
 0350 00000162 79000000 02916812 06010000  ...by.....h.....
 0360 01629803 00000291 580f7000 01642601  .b......X.p..d&.
 0370 00000291 780f6e75 6d000165 79000000  ....x.num..ey...
 0380 0291740b dc000000 01667900 00000291  ..t......fy.....
 0390 70000708 26010000 07087900 00001961  p...&.....y....a
 03a0 32640001 57790000 004c0208 02000000  2d..Wy...L......
 03b0 00800000 00000000 00019ccd 0300000d  ................
 03c0 63680001 57ac0000 0002917f 001a6932  ch..W.........i2
 03d0 6100014e f0010802 00000000 5c000000  a..N........\...
 03e0 00000000 019c0604 00000d6e 756d0001  ...........num..
 03f0 4e790000 0002917c 0d626600 014e2601  Ny.....|.bf..N&.
 0400 00000291 7000104b 01000001 3cc80008  ....p..K....<...
 0410 02000000 00280100 00000000 00019c92  .....(..........
 0420 0400000d 6e756d00 013c9204 00000291  ....num..<......
 0430 6c12d700 0000013c 92040000 0291680d  l......<......h.
 0440 75630001 3c790000 00029164 0d626600  uc..<y.....d.bf.
 0450 013c2601 00000291 580f6e00 013e7900  .<&.....X.n..>y.
 0460 00000291 7c0f6400 013f9204 00000291  ....|.d..?......
 0470 781b1801 08020000 0000b800 00000000  x...............
 0480 00000f64 67740001 43790000 00029174  ...dgt..Cy.....t
 0490 00000a04 07950000 00001d01 00000400  ................
 04a0 93010000 08012000 00000cc9 01000069  ...... ........i
 04b0 01000040 0a080200 00000014 02000000  ...@............
 04c0 0000007d 01000002 a7010000 013f300c  ...}.........?0.
 04d0 08020000 00002400 00000000 0000019c  ......$.........
 04e0 63000000 03700001 3f630000 00029178  c....p..?c.....x
 04f0 03630001 3f650000 00029177 00040805  .c..?e.....w....
 0500 0108e200 0000025f 01000001 21280b08  ......._....!(..
 0510 02000000 00080100 00000000 00019c98  ................
 0520 00000006 ac010000 01239800 00000291  .........#......
 0530 7c000504 07950000 0002d401 00000114  |...............
 0540 c00a0802 00000000 68000000 00000000  ........h.......
 0550 019cd700 00000373 74720001 14d70000  .......str......
 0560 00029168 07630001 16650000 0002917f  ...h.c...e......
 0570 00080865 00000009 b5010000 010b6500  ...e..........e.
 0580 0000840a 08020000 00003c00 00000000  ..........<.....
 0590 0000019c 0abf0100 00010440 0a080200  ...........@....
 05a0 00000044 00000000 00000001 9c036300  ...D..........c.
 05b0 01046500 00000291 7f000085 00000004  ..e.............
 05c0 003b0200 00080120 0000000c e5010000  .;..... ........
 05d0 69010000 540c0802 00000000 a4000000  i...T...........
 05e0 00000000 e8010000 02f40100 00010d94  ................
 05f0 0c080200 00000064 00000000 00000001  .......d........
 0600 9c590000 00030e02 0000010f 59000000  .Y..........Y...
 0610 02917c00 04040795 00000005 00020000  ..|.............
 0620 0104540c 08020000 00004000 00000000  ..T.......@.....
 0630 0000019c 030e0200 00010659 00000002  ...........Y....
 0640 917c0000 58000000 04009b02 00000801  .|..X...........
 0650 20000000 0c160200 00690100 00f80c08   ........i......
 0660 02000000 005c0000 00000000 00340200  .....\.......4..
 0670 00020405 696e7400 03230200 000106f8  ....int..#......
 0680 0c080200 0000005c 00000000 00000001  .......\........
 0690 9c04656c 0001082d 00000002 917c0000  ..el...-.....|..
Contents of section .debug_abbrev:
 0000 01110125 0e130b03 0e1b0e11 01120710  ...%............
 0010 17000002 1600030e 3a0b3b0b 49130000  ........:.;.I...
 0020 03130103 0e0b0b3a 0b3b0b01 13000004  .......:.;......
 0030 0d00030e 4913380b 34190000 050f000b  ....I.8.4.......
 0040 0b000006 24000b0b 3e0b0308 0000070f  ....$...>.......
 0050 000b0b49 13000008 15012719 01130000  ...I......'.....
 0060 09050049 1300000a 24000b0b 3e0b030e  ...I....$...>...
 0070 00000b34 00030e3a 0b3b0b49 13021800  ...4...:.;.I....
 0080 000c2e01 3f19030e 3a0b3b0b 27191101  ....?...:.;.'...
 0090 12074018 96421901 1300000d 05000308  ..@..B..........
 00a0 3a0b3b0b 49130218 00000e18 0000000f  :.;.I...........
 00b0 34000308 3a0b3b0b 49130218 0000102e  4...:.;.I.......
 00c0 01030e3a 0b3b0b27 19110112 07401897  ...:.;.'.....@..
 00d0 42190113 0000112e 013f1903 0e3a0b3b  B........?...:.;
 00e0 0b271911 01120740 18974219 01130000  .'.....@..B.....
 00f0 12050003 0e3a0b3b 0b491302 18000013  .....:.;.I......
 0100 0a00030e 3a0b3b0b 11010000 140b0155  ....:.;........U
 0110 17000015 01014913 01130000 16210049  ......I......!.I
 0120 132f0b00 00172e01 030e3a0b 3b0b2719  ./........:.;.'.
 0130 11011207 40189642 19011300 00182e01  ....@..B........
 0140 03083a0b 3b0b2719 49131101 12074018  ..:.;.'.I.....@.
 0150 96421901 13000019 2e010308 3a0b3b0b  .B..........:.;.
 0160 27194913 11011207 40189742 19011300  '.I.....@..B....
 0170 001a2e01 03083a0b 3b0b2719 11011207  ......:.;.'.....
 0180 40189642 19011300 001b0b01 11011207  @..B............
 0190 00000001 1101250e 130b030e 1b0e1101  ......%.........
 01a0 12071017 0000022e 013f1903 0e3a0b3b  .........?...:.;
 01b0 0b271911 01120740 18964219 01130000  .'.....@..B.....
 01c0 03050003 083a0b3b 0b491302 18000004  .....:.;.I......
 01d0 0f000b0b 00000524 000b0b3e 0b030e00  .......$...>....
 01e0 00063400 030e3a0b 3b0b4913 02180000  ..4...:.;.I.....
 01f0 07340003 083a0b3b 0b491302 18000008  .4...:.;.I......
 0200 0f000b0b 49130000 092e003f 19030e3a  ....I......?...:
 0210 0b3b0b27 19491311 01120740 18964219  .;.'.I.....@..B.
 0220 00000a2e 013f1903 0e3a0b3b 0b271911  .....?...:.;.'..
 0230 01120740 18964219 00000001 1101250e  ...@..B.......%.
 0240 130b030e 1b0e1101 12071017 0000022e  ................
 0250 013f1903 0e3a0b3b 0b271911 01120740  .?...:.;.'.....@
 0260 18964219 01130000 03340003 0e3a0b3b  ..B......4...:.;
 0270 0b491302 18000004 24000b0b 3e0b030e  .I......$...>...
 0280 0000052e 013f1903 0e3a0b3b 0b271911  .....?...:.;.'..
 0290 01120740 18964219 00000001 1101250e  ...@..B.......%.
 02a0 130b030e 1b0e1101 12071017 00000224  ...............$
 02b0 000b0b3e 0b030800 00032e01 3f19030e  ...>........?...
 02c0 3a0b3b0b 27191101 12074018 96421900  :.;.'.....@..B..
 02d0 00043400 03083a0b 3b0b4913 02180000  ..4...:.;.I.....
 02e0 00                                   .               
Contents of section .debug_aranges:
 0000 2c000000 02000000 00000800 00000000  ,...............
 0010 c8000802 00000000 78090000 00000000  ........x.......
 0020 00000000 00000000 00000000 00000000  ................
 0030 2c000000 02009a04 00000800 00000000  ,...............
 0040 400a0802 00000000 14020000 00000000  @...............
 0050 00000000 00000000 00000000 00000000  ................
 0060 2c000000 0200bb05 00000800 00000000  ,...............
 0070 540c0802 00000000 a4000000 00000000  T...............
 0080 00000000 00000000 00000000 00000000  ................
 0090 2c000000 02004406 00000800 00000000  ,.....D.........
 00a0 f80c0802 00000000 5c000000 00000000  ........\.......
 00b0 00000000 00000000 00000000 00000000  ................
Contents of section .debug_ranges:
 0000 cc030000 00000000 9c070000 00000000  ................
 0010 c0070000 00000000 c4070000 00000000  ................
 0020 00000000 00000000 00000000 00000000  ................
Contents of section .debug_line:
 0000 79010000 02006c00 00000401 fb0e0d00  y.....l.........
 0010 01010101 00000001 00000173 7263002f  ...........src./
 0020 7573722f 6c69622f 6763632d 63726f73  usr/lib/gcc-cros
 0030 732f6161 72636836 342d6c69 6e75782d  s/aarch64-linux-
 0040 676e752f 372f696e 636c7564 65000070  gnu/7/include..p
 0050 72696e74 662e6300 01000073 74646172  rintf.c....stdar
 0060 672e6800 0200003c 6275696c 742d696e  g.h....<built-in
 0070 3e000000 00000009 02c80008 02000000  >...............
 0080 00033c01 59212f21 4968214b 754b0002  ..<.Y!/!Ih!KuK..
 0090 0401063c 00020402 3c063d00 02040106  ...<....<.=.....
 00a0 3c000204 033c0002 04042e00 0204022e  <....<..........
 00b0 00020408 20000204 08068303 7a3c0309  .... .......z<..
 00c0 3c2f3f4b 3d3d5a59 3f2f0002 0401063c  </?K==ZY?/.....<
 00d0 063d3d00 02040106 3c063d3d 00020401  .==.....<.==....
 00e0 063c063d 3d213167 3d22214b 67557524  .<.==!1g="!KgUu$
 00f0 3d3d2131 75000204 01063c00 0204022e  ==!1u.....<.....
 0100 00020404 20000204 04062200 0204042f  .... ....."..../
 0110 213b0002 04010666 063e2149 5a214984  !;.....f.>!IZ!I.
 0120 3f7a213d 5a242159 3d593000 02040106  ?z!=Z$!Y=Y0.....
 0130 3c063d8a 0329ac03 57200329 66035720  <.=..)..W .)f.W 
 0140 03294a03 602008c9 8328089f 83280224  .)J.` ...(...(.$
 0150 13832208 c92208e5 224c0340 2003c400  .."..".."L.@ ...
 0160 82035520 032c204e 3d4b4b3f a0910822  ..U ., N=KK?..."
 0170 3f3d7541 a091c93e 02030001 01670000  ?=uA...>.....g..
 0180 00020021 00000004 01fb0e0d 00010101  ...!............
 0190 01000000 01000001 73726300 00756172  ........src..uar
 01a0 742e6300 01000000 00090240 0a080200  t.c........@....
 01b0 00000016 3d000204 01062006 684b3f30  ....=..... .hK?0
 01c0 75223d31 3e214b3e 3d2f037a 3c523f32  u"=1>!K>=/.z<R?2
 01d0 4b3d4c5c 4b3d3d4d 4b4b4b4b 3d4b4b4b  K=L\K==MKKKK=KKK
 01e0 404b2f02 03000101 48000000 02002500  @K/.....H.....%.
 01f0 00000401 fb0e0d00 01010101 00000001  ................
 0200 00000173 72630000 6770696f 5f6c6564  ...src..gpio_led
 0210 2e630001 00000000 0902540c 08020000  .c........T.....
 0220 00001630 4b3e4b3f 304b3d4b 3d3d3d02  ...0K>K?0K=K===.
 0230 03000101 46000000 02002300 00000401  ....F.....#.....
 0240 fb0e0d00 01010101 00000001 00000173  ...............s
 0250 72630000 6b65726e 656c2e63 00010000  rc..kernel.c....
 0260 00000902 f80c0802 00000000 1830592f  .............0Y/
 0270 4e212121 00020401 3e020400 0101      N!!!....>.....  
Contents of section .debug_str:
 0000 7374646f 75745f70 75747000 5f5f6772  stdout_putp.__gr
 0010 5f746f70 00746670 5f666f72 6d617400  _top.tfp_format.
 0020 474e5520 43313120 372e352e 30202d6d  GNU C11 7.5.0 -m
 0030 67656e65 72616c2d 72656773 2d6f6e6c  general-regs-onl
 0040 79202d6d 6c697474 6c652d65 6e646961  y -mlittle-endia
 0050 6e202d6d 6162693d 6c703634 202d6720  n -mabi=lp64 -g 
 0060 2d666672 65657374 616e6469 6e67005f  -ffreestanding._
 0070 5f676e75 635f7661 5f6c6973 74007075  _gnuc_va_list.pu
 0080 74636600 7374646f 75745f70 75746600  tcf.stdout_putf.
 0090 6c6f6e67 20756e73 69676e65 6420696e  long unsigned in
 00a0 74007075 74637000 696e6974 5f707269  t.putcp.init_pri
 00b0 6e746600 7372632f 7072696e 74662e63  ntf.src/printf.c
 00c0 00746670 5f737072 696e7466 005f5f67  .tfp_sprintf.__g
 00d0 725f6f66 66730062 61736500 64696769  r_offs.base.digi
 00e0 74006368 61720074 66705f70 72696e74  t.char.tfp_print
 00f0 66005f5f 76615f6c 69737400 5f5f7672  f.__va_list.__vr
 0100 5f6f6666 73006e75 6d70005f 5f76725f  _offs.nump.__vr_
 0110 746f7000 61626f72 74002f73 63726174  top.abort./scrat
 0120 63682f50 726f6a65 63742f6d 795f6f73  ch/Project/my_os
 0130 5f6e616e 6f70692f 63686170 74657273  _nanopi/chapters
 0140 2f656c31 5f656e74 72790075 69326100  /el1_entry.ui2a.
 0150 5f5f7374 61636b00 70757463 68770075  __stack.putchw.u
 0160 6172745f 696e6974 002f686f 6d652f64  art_init./home/d
 0170 65657061 6b2f4465 736b746f 702f5072  eepak/Desktop/Pr
 0180 6f6a6563 74732f6d 795f6f73 5f6e616e  ojects/my_os_nan
 0190 6f70692f 67697468 75622f6e 616e6f70  opi/github/nanop
 01a0 694d342d 6f730070 75746300 73656c65  iM4-os.putc.sele
 01b0 63746f72 00756172 745f7265 63760075  ctor.uart_recv.u
 01c0 6172745f 73656e64 00737263 2f756172  art_send.src/uar
 01d0 742e6300 75617274 5f73656e 645f7374  t.c.uart_send_st
 01e0 72696e67 00737263 2f677069 6f5f6c65  ring.src/gpio_le
 01f0 642e6300 6770696f 5f6c6564 5f6f6e00  d.c.gpio_led_on.
 0200 6770696f 5f6c6564 5f696e69 74007265  gpio_led_init.re
 0210 675f7661 6c007372 632f6b65 726e656c  g_val.src/kernel
 0220 2e63006b 65726e65 6c5f6d61 696e00    .c.kernel_main. 
Contents of section .comment:
 0000 4743433a 20285562 756e7475 2f4c696e  GCC: (Ubuntu/Lin
 0010 61726f20 372e352e 302d3375 62756e74  aro 7.5.0-3ubunt
 0020 75317e31 382e3034 2920372e 352e3000  u1~18.04) 7.5.0.
Contents of section .debug_frame:
 0000 0c000000 ffffffff 01000478 1e0c1f00  ...........x....
 0010 1c000000 00000000 c8000802 00000000  ................
 0020 28010000 00000000 410e3002 480e0000  (.......A.0.H...
 0030 24000000 00000000 f0010802 00000000  $...............
 0040 5c000000 00000000 410e209d 049e0341  \.......A. ....A
 0050 0d1d54de dd0c1f00 1c000000 00000000  ..T.............
 0060 4c020802 00000000 80000000 00000000  L...............
 0070 410e105e 0e000000 24000000 00000000  A..^....$.......
 0080 cc020802 00000000 ac000000 00000000  ................
 0090 410e409d 089e0741 0d1d68de dd0c1f00  A.@....A..h.....
 00a0 24000000 00000000 78030802 00000000  $.......x.......
 00b0 dc000000 00000000 410e409d 089e0741  ........A.@....A
 00c0 0d1d74de dd0c1f00 2c000000 00000000  ..t.....,.......
 00d0 54040802 00000000 48040000 00000000  T.......H.......
 00e0 410e609d 0c9e0b41 0d1d4193 0a030e01  A.`....A..A.....
 00f0 deddd30c 1f000000 1c000000 00000000  ................
 0100 9c080802 00000000 38000000 00000000  ........8.......
 0110 410e104c 0e000000 2c000000 00000000  A..L....,.......
 0120 d4080802 00000000 a0000000 00000000  ................
 0130 410ea001 9d149e13 410d1d65 dedd0c1f  A.......A..e....
 0140 00000000 00000000 1c000000 00000000  ................
 0150 74090802 00000000 34000000 00000000  t.......4.......
 0160 410e104b 0e000000 2c000000 00000000  A..K....,.......
 0170 a8090802 00000000 98000000 00000000  ................
 0180 410e9001 9d129e11 410d1d63 dedd0c1f  A.......A..c....
 0190 00000000 00000000 0c000000 ffffffff  ................
 01a0 01000478 1e0c1f00 24000000 98010000  ...x....$.......
 01b0 400a0802 00000000 44000000 00000000  @.......D.......
 01c0 410e209d 049e0341 0d1d4ede dd0c1f00  A. ....A..N.....
 01d0 24000000 98010000 840a0802 00000000  $...............
 01e0 3c000000 00000000 410e109d 029e0141  <.......A......A
 01f0 0d1d4cde dd0c1f00 24000000 98010000  ..L.....$.......
 0200 c00a0802 00000000 68000000 00000000  ........h.......
 0210 410e309d 069e0541 0d1d57de dd0c1f00  A.0....A..W.....
 0220 24000000 98010000 280b0802 00000000  $.......(.......
 0230 08010000 00000000 410e209d 049e0341  ........A. ....A
 0240 0d1d7fde dd0c1f00 24000000 98010000  ........$.......
 0250 300c0802 00000000 24000000 00000000  0.......$.......
 0260 410e209d 049e0341 0d1d46de dd0c1f00  A. ....A..F.....
 0270 0c000000 ffffffff 01000478 1e0c1f00  ...........x....
 0280 24000000 70020000 540c0802 00000000  $...p...T.......
 0290 40000000 00000000 410e209d 049e0341  @.......A. ....A
 02a0 0d1d4dde dd0c1f00 24000000 70020000  ..M.....$...p...
 02b0 940c0802 00000000 64000000 00000000  ........d.......
 02c0 410e209d 049e0341 0d1d56de dd0c1f00  A. ....A..V.....
 02d0 0c000000 ffffffff 01000478 1e0c1f00  ...........x....
 02e0 24000000 d0020000 f80c0802 00000000  $...............
 02f0 5c000000 00000000 410e209d 049e0341  \.......A. ....A
 0300 0d1d0000 00000000                    ........        

Disassembly of section .text.boot:

0000000002080000 <_start>:
 2080000:	58000540 	ldr	x0, 20800a8 <led_on+0x58>
 2080004:	d5181000 	msr	sctlr_el1, x0
 2080008:	d53c1000 	mrs	x0, sctlr_el2
 208000c:	9266f800 	and	x0, x0, #0xfffffffffdffffff
 2080010:	d51c1000 	msr	sctlr_el2, x0
 2080014:	580004e0 	ldr	x0, 20800b0 <led_on+0x60>
 2080018:	d51c1100 	msr	hcr_el2, x0
 208001c:	580004e0 	ldr	x0, 20800b8 <led_on+0x68>
 2080020:	d51c4000 	msr	spsr_el2, x0
 2080024:	10000060 	adr	x0, 2080030 <el1_entry>
 2080028:	d51c4020 	msr	elr_el2, x0
 208002c:	d69f03e0 	eret

0000000002080030 <el1_entry>:
 2080030:	10006f80 	adr	x0, 2080e20 <bss_begin>
 2080034:	10006fe1 	adr	x1, 2080e30 <bss_end>
 2080038:	cb000021 	sub	x1, x1, x0
 208003c:	94000346 	bl	2080d54 <memzero>
 2080040:	58000400 	ldr	x0, 20800c0 <led_on+0x70>
 2080044:	927cec1f 	and	sp, x0, #0xfffffffffffffff0
 2080048:	9400032c 	bl	2080cf8 <kernel_main>

000000000208004c <hang>:
 208004c:	14000000 	b	208004c <hang>

0000000002080050 <led_on>:
 2080050:	d2800080 	mov	x0, #0x4                   	// #4
 2080054:	f2bfe640 	movk	x0, #0xff32, lsl #16
 2080058:	b9400001 	ldr	w1, [x0]
 208005c:	d5033fbf 	dmb	sy
 2080060:	12167421 	and	w1, w1, #0xfffffcff
 2080064:	d5033fbf 	dmb	sy
 2080068:	d2800093 	mov	x19, #0x4                   	// #4
 208006c:	b9000001 	str	w1, [x0]
 2080070:	f2bfee53 	movk	x19, #0xff72, lsl #16
 2080074:	b9400261 	ldr	w1, [x19]
 2080078:	d5033fbf 	dmb	sy
 208007c:	32130021 	orr	w1, w1, #0x2000
 2080080:	d5033fbf 	dmb	sy
 2080084:	d2bfee54 	mov	x20, #0xff720000            	// #4285661184
 2080088:	b9000261 	str	w1, [x19]
 208008c:	b9400281 	ldr	w1, [x20]
 2080090:	d5033fbf 	dmb	sy
 2080094:	32130021 	orr	w1, w1, #0x2000
 2080098:	d5033fbf 	dmb	sy
 208009c:	b9000281 	str	w1, [x20]
 20800a0:	d5033fbf 	dmb	sy
 20800a4:	d65f03c0 	ret
 20800a8:	30d00800 	.word	0x30d00800
 20800ac:	00000000 	.word	0x00000000
 20800b0:	80000000 	.word	0x80000000
 20800b4:	00000000 	.word	0x00000000
 20800b8:	000001c5 	.word	0x000001c5
 20800bc:	00000000 	.word	0x00000000
 20800c0:	12080000 	.word	0x12080000
 20800c4:	00000000 	.word	0x00000000

Disassembly of section .text:

00000000020800c8 <ui2a>:
    }

#endif

static void ui2a(unsigned int num, unsigned int base, int uc,char * bf)
    {
 20800c8:	d100c3ff 	sub	sp, sp, #0x30
 20800cc:	b9001fe0 	str	w0, [sp, #28]
 20800d0:	b9001be1 	str	w1, [sp, #24]
 20800d4:	b90017e2 	str	w2, [sp, #20]
 20800d8:	f90007e3 	str	x3, [sp, #8]
    int n=0;
 20800dc:	b9002fff 	str	wzr, [sp, #44]
    unsigned int d=1;
 20800e0:	52800020 	mov	w0, #0x1                   	// #1
 20800e4:	b9002be0 	str	w0, [sp, #40]
    while (num/d >= base)
 20800e8:	14000005 	b	20800fc <ui2a+0x34>
        d*=base;
 20800ec:	b9402be1 	ldr	w1, [sp, #40]
 20800f0:	b9401be0 	ldr	w0, [sp, #24]
 20800f4:	1b007c20 	mul	w0, w1, w0
 20800f8:	b9002be0 	str	w0, [sp, #40]
    while (num/d >= base)
 20800fc:	b9401fe1 	ldr	w1, [sp, #28]
 2080100:	b9402be0 	ldr	w0, [sp, #40]
 2080104:	1ac00820 	udiv	w0, w1, w0
 2080108:	b9401be1 	ldr	w1, [sp, #24]
 208010c:	6b00003f 	cmp	w1, w0
 2080110:	54fffee9 	b.ls	20800ec <ui2a+0x24>  // b.plast
    while (d!=0) {
 2080114:	1400002f 	b	20801d0 <ui2a+0x108>
        int dgt = num / d;
 2080118:	b9401fe1 	ldr	w1, [sp, #28]
 208011c:	b9402be0 	ldr	w0, [sp, #40]
 2080120:	1ac00820 	udiv	w0, w1, w0
 2080124:	b90027e0 	str	w0, [sp, #36]
        num%= d;
 2080128:	b9401fe0 	ldr	w0, [sp, #28]
 208012c:	b9402be1 	ldr	w1, [sp, #40]
 2080130:	1ac10802 	udiv	w2, w0, w1
 2080134:	b9402be1 	ldr	w1, [sp, #40]
 2080138:	1b017c41 	mul	w1, w2, w1
 208013c:	4b010000 	sub	w0, w0, w1
 2080140:	b9001fe0 	str	w0, [sp, #28]
        d/=base;
 2080144:	b9402be1 	ldr	w1, [sp, #40]
 2080148:	b9401be0 	ldr	w0, [sp, #24]
 208014c:	1ac00820 	udiv	w0, w1, w0
 2080150:	b9002be0 	str	w0, [sp, #40]
        if (n || dgt>0 || d==0) {
 2080154:	b9402fe0 	ldr	w0, [sp, #44]
 2080158:	7100001f 	cmp	w0, #0x0
 208015c:	540000e1 	b.ne	2080178 <ui2a+0xb0>  // b.any
 2080160:	b94027e0 	ldr	w0, [sp, #36]
 2080164:	7100001f 	cmp	w0, #0x0
 2080168:	5400008c 	b.gt	2080178 <ui2a+0xb0>
 208016c:	b9402be0 	ldr	w0, [sp, #40]
 2080170:	7100001f 	cmp	w0, #0x0
 2080174:	540002e1 	b.ne	20801d0 <ui2a+0x108>  // b.any
            *bf++ = dgt+(dgt<10 ? '0' : (uc ? 'A' : 'a')-10);
 2080178:	b94027e0 	ldr	w0, [sp, #36]
 208017c:	7100241f 	cmp	w0, #0x9
 2080180:	5400010d 	b.le	20801a0 <ui2a+0xd8>
 2080184:	b94017e0 	ldr	w0, [sp, #20]
 2080188:	7100001f 	cmp	w0, #0x0
 208018c:	54000060 	b.eq	2080198 <ui2a+0xd0>  // b.none
 2080190:	528006e0 	mov	w0, #0x37                  	// #55
 2080194:	14000004 	b	20801a4 <ui2a+0xdc>
 2080198:	52800ae0 	mov	w0, #0x57                  	// #87
 208019c:	14000002 	b	20801a4 <ui2a+0xdc>
 20801a0:	52800600 	mov	w0, #0x30                  	// #48
 20801a4:	b94027e1 	ldr	w1, [sp, #36]
 20801a8:	12001c22 	and	w2, w1, #0xff
 20801ac:	f94007e1 	ldr	x1, [sp, #8]
 20801b0:	91000423 	add	x3, x1, #0x1
 20801b4:	f90007e3 	str	x3, [sp, #8]
 20801b8:	0b020000 	add	w0, w0, w2
 20801bc:	12001c00 	and	w0, w0, #0xff
 20801c0:	39000020 	strb	w0, [x1]
            ++n;
 20801c4:	b9402fe0 	ldr	w0, [sp, #44]
 20801c8:	11000400 	add	w0, w0, #0x1
 20801cc:	b9002fe0 	str	w0, [sp, #44]
    while (d!=0) {
 20801d0:	b9402be0 	ldr	w0, [sp, #40]
 20801d4:	7100001f 	cmp	w0, #0x0
 20801d8:	54fffa01 	b.ne	2080118 <ui2a+0x50>  // b.any
            }
        }
    *bf=0;
 20801dc:	f94007e0 	ldr	x0, [sp, #8]
 20801e0:	3900001f 	strb	wzr, [x0]
    }
 20801e4:	d503201f 	nop
 20801e8:	9100c3ff 	add	sp, sp, #0x30
 20801ec:	d65f03c0 	ret

00000000020801f0 <i2a>:

static void i2a (int num, char * bf)
    {
 20801f0:	a9be7bfd 	stp	x29, x30, [sp, #-32]!
 20801f4:	910003fd 	mov	x29, sp
 20801f8:	b9001fa0 	str	w0, [x29, #28]
 20801fc:	f9000ba1 	str	x1, [x29, #16]
    if (num<0) {
 2080200:	b9401fa0 	ldr	w0, [x29, #28]
 2080204:	7100001f 	cmp	w0, #0x0
 2080208:	5400012a 	b.ge	208022c <i2a+0x3c>  // b.tcont
        num=-num;
 208020c:	b9401fa0 	ldr	w0, [x29, #28]
 2080210:	4b0003e0 	neg	w0, w0
 2080214:	b9001fa0 	str	w0, [x29, #28]
        *bf++ = '-';
 2080218:	f9400ba0 	ldr	x0, [x29, #16]
 208021c:	91000401 	add	x1, x0, #0x1
 2080220:	f9000ba1 	str	x1, [x29, #16]
 2080224:	528005a1 	mov	w1, #0x2d                  	// #45
 2080228:	39000001 	strb	w1, [x0]
        }
    ui2a(num,10,0,bf);
 208022c:	b9401fa0 	ldr	w0, [x29, #28]
 2080230:	f9400ba3 	ldr	x3, [x29, #16]
 2080234:	52800002 	mov	w2, #0x0                   	// #0
 2080238:	52800141 	mov	w1, #0xa                   	// #10
 208023c:	97ffffa3 	bl	20800c8 <ui2a>
    }
 2080240:	d503201f 	nop
 2080244:	a8c27bfd 	ldp	x29, x30, [sp], #32
 2080248:	d65f03c0 	ret

000000000208024c <a2d>:

static int a2d(char ch)
    {
 208024c:	d10043ff 	sub	sp, sp, #0x10
 2080250:	39003fe0 	strb	w0, [sp, #15]
    if (ch>='0' && ch<='9')
 2080254:	39403fe0 	ldrb	w0, [sp, #15]
 2080258:	7100bc1f 	cmp	w0, #0x2f
 208025c:	540000e9 	b.ls	2080278 <a2d+0x2c>  // b.plast
 2080260:	39403fe0 	ldrb	w0, [sp, #15]
 2080264:	7100e41f 	cmp	w0, #0x39
 2080268:	54000088 	b.hi	2080278 <a2d+0x2c>  // b.pmore
        return ch-'0';
 208026c:	39403fe0 	ldrb	w0, [sp, #15]
 2080270:	5100c000 	sub	w0, w0, #0x30
 2080274:	14000014 	b	20802c4 <a2d+0x78>
    else if (ch>='a' && ch<='f')
 2080278:	39403fe0 	ldrb	w0, [sp, #15]
 208027c:	7101801f 	cmp	w0, #0x60
 2080280:	540000e9 	b.ls	208029c <a2d+0x50>  // b.plast
 2080284:	39403fe0 	ldrb	w0, [sp, #15]
 2080288:	7101981f 	cmp	w0, #0x66
 208028c:	54000088 	b.hi	208029c <a2d+0x50>  // b.pmore
        return ch-'a'+10;
 2080290:	39403fe0 	ldrb	w0, [sp, #15]
 2080294:	51015c00 	sub	w0, w0, #0x57
 2080298:	1400000b 	b	20802c4 <a2d+0x78>
    else if (ch>='A' && ch<='F')
 208029c:	39403fe0 	ldrb	w0, [sp, #15]
 20802a0:	7101001f 	cmp	w0, #0x40
 20802a4:	540000e9 	b.ls	20802c0 <a2d+0x74>  // b.plast
 20802a8:	39403fe0 	ldrb	w0, [sp, #15]
 20802ac:	7101181f 	cmp	w0, #0x46
 20802b0:	54000088 	b.hi	20802c0 <a2d+0x74>  // b.pmore
        return ch-'A'+10;
 20802b4:	39403fe0 	ldrb	w0, [sp, #15]
 20802b8:	5100dc00 	sub	w0, w0, #0x37
 20802bc:	14000002 	b	20802c4 <a2d+0x78>
    else return -1;
 20802c0:	12800000 	mov	w0, #0xffffffff            	// #-1
    }
 20802c4:	910043ff 	add	sp, sp, #0x10
 20802c8:	d65f03c0 	ret

00000000020802cc <a2i>:

static char a2i(char ch, char** src,int base,int* nump)
    {
 20802cc:	a9bc7bfd 	stp	x29, x30, [sp, #-64]!
 20802d0:	910003fd 	mov	x29, sp
 20802d4:	3900bfa0 	strb	w0, [x29, #47]
 20802d8:	f90013a1 	str	x1, [x29, #32]
 20802dc:	b9002ba2 	str	w2, [x29, #40]
 20802e0:	f9000fa3 	str	x3, [x29, #24]
    char* p= *src;
 20802e4:	f94013a0 	ldr	x0, [x29, #32]
 20802e8:	f9400000 	ldr	x0, [x0]
 20802ec:	f9001fa0 	str	x0, [x29, #56]
    int num=0;
 20802f0:	b90037bf 	str	wzr, [x29, #52]
    int digit;
    while ((digit=a2d(ch))>=0) {
 20802f4:	14000010 	b	2080334 <a2i+0x68>
        if (digit>base) break;
 20802f8:	b94033a1 	ldr	w1, [x29, #48]
 20802fc:	b9402ba0 	ldr	w0, [x29, #40]
 2080300:	6b00003f 	cmp	w1, w0
 2080304:	5400026c 	b.gt	2080350 <a2i+0x84>
        num=num*base+digit;
 2080308:	b94037a1 	ldr	w1, [x29, #52]
 208030c:	b9402ba0 	ldr	w0, [x29, #40]
 2080310:	1b007c20 	mul	w0, w1, w0
 2080314:	b94033a1 	ldr	w1, [x29, #48]
 2080318:	0b000020 	add	w0, w1, w0
 208031c:	b90037a0 	str	w0, [x29, #52]
        ch=*p++;
 2080320:	f9401fa0 	ldr	x0, [x29, #56]
 2080324:	91000401 	add	x1, x0, #0x1
 2080328:	f9001fa1 	str	x1, [x29, #56]
 208032c:	39400000 	ldrb	w0, [x0]
 2080330:	3900bfa0 	strb	w0, [x29, #47]
    while ((digit=a2d(ch))>=0) {
 2080334:	3940bfa0 	ldrb	w0, [x29, #47]
 2080338:	97ffffc5 	bl	208024c <a2d>
 208033c:	b90033a0 	str	w0, [x29, #48]
 2080340:	b94033a0 	ldr	w0, [x29, #48]
 2080344:	7100001f 	cmp	w0, #0x0
 2080348:	54fffd8a 	b.ge	20802f8 <a2i+0x2c>  // b.tcont
 208034c:	14000002 	b	2080354 <a2i+0x88>
        if (digit>base) break;
 2080350:	d503201f 	nop
        }
    *src=p;
 2080354:	f94013a0 	ldr	x0, [x29, #32]
 2080358:	f9401fa1 	ldr	x1, [x29, #56]
 208035c:	f9000001 	str	x1, [x0]
    *nump=num;
 2080360:	f9400fa0 	ldr	x0, [x29, #24]
 2080364:	b94037a1 	ldr	w1, [x29, #52]
 2080368:	b9000001 	str	w1, [x0]
    return ch;
 208036c:	3940bfa0 	ldrb	w0, [x29, #47]
    }
 2080370:	a8c47bfd 	ldp	x29, x30, [sp], #64
 2080374:	d65f03c0 	ret

0000000002080378 <putchw>:

static void putchw(void* putp,putcf putf,int n, char z, char* bf)
    {
 2080378:	a9bc7bfd 	stp	x29, x30, [sp, #-64]!
 208037c:	910003fd 	mov	x29, sp
 2080380:	f90017a0 	str	x0, [x29, #40]
 2080384:	f90013a1 	str	x1, [x29, #32]
 2080388:	b9001fa2 	str	w2, [x29, #28]
 208038c:	39006fa3 	strb	w3, [x29, #27]
 2080390:	f9000ba4 	str	x4, [x29, #16]
    char fc=z? '0' : ' ';
 2080394:	39406fa0 	ldrb	w0, [x29, #27]
 2080398:	7100001f 	cmp	w0, #0x0
 208039c:	54000060 	b.eq	20803a8 <putchw+0x30>  // b.none
 20803a0:	52800600 	mov	w0, #0x30                  	// #48
 20803a4:	14000002 	b	20803ac <putchw+0x34>
 20803a8:	52800400 	mov	w0, #0x20                  	// #32
 20803ac:	3900dfa0 	strb	w0, [x29, #55]
    char ch;
    char* p=bf;
 20803b0:	f9400ba0 	ldr	x0, [x29, #16]
 20803b4:	f9001fa0 	str	x0, [x29, #56]
    while (*p++ && n > 0)
 20803b8:	14000004 	b	20803c8 <putchw+0x50>
        n--;
 20803bc:	b9401fa0 	ldr	w0, [x29, #28]
 20803c0:	51000400 	sub	w0, w0, #0x1
 20803c4:	b9001fa0 	str	w0, [x29, #28]
    while (*p++ && n > 0)
 20803c8:	f9401fa0 	ldr	x0, [x29, #56]
 20803cc:	91000401 	add	x1, x0, #0x1
 20803d0:	f9001fa1 	str	x1, [x29, #56]
 20803d4:	39400000 	ldrb	w0, [x0]
 20803d8:	7100001f 	cmp	w0, #0x0
 20803dc:	54000120 	b.eq	2080400 <putchw+0x88>  // b.none
 20803e0:	b9401fa0 	ldr	w0, [x29, #28]
 20803e4:	7100001f 	cmp	w0, #0x0
 20803e8:	54fffeac 	b.gt	20803bc <putchw+0x44>
    while (n-- > 0)
 20803ec:	14000005 	b	2080400 <putchw+0x88>
        putf(putp,fc);
 20803f0:	f94013a2 	ldr	x2, [x29, #32]
 20803f4:	3940dfa1 	ldrb	w1, [x29, #55]
 20803f8:	f94017a0 	ldr	x0, [x29, #40]
 20803fc:	d63f0040 	blr	x2
    while (n-- > 0)
 2080400:	b9401fa0 	ldr	w0, [x29, #28]
 2080404:	51000401 	sub	w1, w0, #0x1
 2080408:	b9001fa1 	str	w1, [x29, #28]
 208040c:	7100001f 	cmp	w0, #0x0
 2080410:	54ffff0c 	b.gt	20803f0 <putchw+0x78>
    while ((ch= *bf++))
 2080414:	14000005 	b	2080428 <putchw+0xb0>
        putf(putp,ch);
 2080418:	f94013a2 	ldr	x2, [x29, #32]
 208041c:	3940dba1 	ldrb	w1, [x29, #54]
 2080420:	f94017a0 	ldr	x0, [x29, #40]
 2080424:	d63f0040 	blr	x2
    while ((ch= *bf++))
 2080428:	f9400ba0 	ldr	x0, [x29, #16]
 208042c:	91000401 	add	x1, x0, #0x1
 2080430:	f9000ba1 	str	x1, [x29, #16]
 2080434:	39400000 	ldrb	w0, [x0]
 2080438:	3900dba0 	strb	w0, [x29, #54]
 208043c:	3940dba0 	ldrb	w0, [x29, #54]
 2080440:	7100001f 	cmp	w0, #0x0
 2080444:	54fffea1 	b.ne	2080418 <putchw+0xa0>  // b.any
    }
 2080448:	d503201f 	nop
 208044c:	a8c47bfd 	ldp	x29, x30, [sp], #64
 2080450:	d65f03c0 	ret

0000000002080454 <tfp_format>:

void tfp_format(void* putp,putcf putf,char *fmt, va_list va)
    {
 2080454:	a9ba7bfd 	stp	x29, x30, [sp, #-96]!
 2080458:	910003fd 	mov	x29, sp
 208045c:	f9000bf3 	str	x19, [sp, #16]
 2080460:	f9001fa0 	str	x0, [x29, #56]
 2080464:	f9001ba1 	str	x1, [x29, #48]
 2080468:	f90017a2 	str	x2, [x29, #40]
 208046c:	aa0303f3 	mov	x19, x3
    char bf[12];

    char ch;


    while ((ch=*(fmt++))) {
 2080470:	140000fd 	b	2080864 <tfp_format+0x410>
        if (ch!='%')
 2080474:	39417fa0 	ldrb	w0, [x29, #95]
 2080478:	7100941f 	cmp	w0, #0x25
 208047c:	540000c0 	b.eq	2080494 <tfp_format+0x40>  // b.none
            putf(putp,ch);
 2080480:	f9401ba2 	ldr	x2, [x29, #48]
 2080484:	39417fa1 	ldrb	w1, [x29, #95]
 2080488:	f9401fa0 	ldr	x0, [x29, #56]
 208048c:	d63f0040 	blr	x2
 2080490:	140000f5 	b	2080864 <tfp_format+0x410>
        else {
            char lz=0;
 2080494:	39017bbf 	strb	wzr, [x29, #94]
#ifdef  PRINTF_LONG_SUPPORT
            char lng=0;
#endif
            int w=0;
 2080498:	b9004fbf 	str	wzr, [x29, #76]
            ch=*(fmt++);
 208049c:	f94017a0 	ldr	x0, [x29, #40]
 20804a0:	91000401 	add	x1, x0, #0x1
 20804a4:	f90017a1 	str	x1, [x29, #40]
 20804a8:	39400000 	ldrb	w0, [x0]
 20804ac:	39017fa0 	strb	w0, [x29, #95]
            if (ch=='0') {
 20804b0:	39417fa0 	ldrb	w0, [x29, #95]
 20804b4:	7100c01f 	cmp	w0, #0x30
 20804b8:	54000101 	b.ne	20804d8 <tfp_format+0x84>  // b.any
                ch=*(fmt++);
 20804bc:	f94017a0 	ldr	x0, [x29, #40]
 20804c0:	91000401 	add	x1, x0, #0x1
 20804c4:	f90017a1 	str	x1, [x29, #40]
 20804c8:	39400000 	ldrb	w0, [x0]
 20804cc:	39017fa0 	strb	w0, [x29, #95]
                lz=1;
 20804d0:	52800020 	mov	w0, #0x1                   	// #1
 20804d4:	39017ba0 	strb	w0, [x29, #94]
                }
            if (ch>='0' && ch<='9') {
 20804d8:	39417fa0 	ldrb	w0, [x29, #95]
 20804dc:	7100bc1f 	cmp	w0, #0x2f
 20804e0:	54000189 	b.ls	2080510 <tfp_format+0xbc>  // b.plast
 20804e4:	39417fa0 	ldrb	w0, [x29, #95]
 20804e8:	7100e41f 	cmp	w0, #0x39
 20804ec:	54000128 	b.hi	2080510 <tfp_format+0xbc>  // b.pmore
                ch=a2i(ch,&fmt,10,&w);
 20804f0:	910133a1 	add	x1, x29, #0x4c
 20804f4:	9100a3a0 	add	x0, x29, #0x28
 20804f8:	aa0103e3 	mov	x3, x1
 20804fc:	52800142 	mov	w2, #0xa                   	// #10
 2080500:	aa0003e1 	mov	x1, x0
 2080504:	39417fa0 	ldrb	w0, [x29, #95]
 2080508:	97ffff71 	bl	20802cc <a2i>
 208050c:	39017fa0 	strb	w0, [x29, #95]
            if (ch=='l') {
                ch=*(fmt++);
                lng=1;
            }
#endif
            switch (ch) {
 2080510:	39417fa0 	ldrb	w0, [x29, #95]
 2080514:	71018c1f 	cmp	w0, #0x63
 2080518:	540011c0 	b.eq	2080750 <tfp_format+0x2fc>  // b.none
 208051c:	71018c1f 	cmp	w0, #0x63
 2080520:	5400010c 	b.gt	2080540 <tfp_format+0xec>
 2080524:	7100941f 	cmp	w0, #0x25
 2080528:	54001940 	b.eq	2080850 <tfp_format+0x3fc>  // b.none
 208052c:	7101601f 	cmp	w0, #0x58
 2080530:	54000b60 	b.eq	208069c <tfp_format+0x248>  // b.none
 2080534:	7100001f 	cmp	w0, #0x0
 2080538:	54001a80 	b.eq	2080888 <tfp_format+0x434>  // b.none
                    putchw(putp,putf,w,0,va_arg(va, char*));
                    break;
                case '%' :
                    putf(putp,ch);
                default:
                    break;
 208053c:	140000c9 	b	2080860 <tfp_format+0x40c>
            switch (ch) {
 2080540:	7101cc1f 	cmp	w0, #0x73
 2080544:	54001440 	b.eq	20807cc <tfp_format+0x378>  // b.none
 2080548:	7101cc1f 	cmp	w0, #0x73
 208054c:	5400008c 	b.gt	208055c <tfp_format+0x108>
 2080550:	7101901f 	cmp	w0, #0x64
 2080554:	540005c0 	b.eq	208060c <tfp_format+0x1b8>  // b.none
                    break;
 2080558:	140000c2 	b	2080860 <tfp_format+0x40c>
            switch (ch) {
 208055c:	7101d41f 	cmp	w0, #0x75
 2080560:	54000080 	b.eq	2080570 <tfp_format+0x11c>  // b.none
 2080564:	7101e01f 	cmp	w0, #0x78
 2080568:	540009a0 	b.eq	208069c <tfp_format+0x248>  // b.none
                    break;
 208056c:	140000bd 	b	2080860 <tfp_format+0x40c>
                    ui2a(va_arg(va, unsigned int),10,0,bf);
 2080570:	b9401a60 	ldr	w0, [x19, #24]
 2080574:	f9400261 	ldr	x1, [x19]
 2080578:	7100001f 	cmp	w0, #0x0
 208057c:	540000eb 	b.lt	2080598 <tfp_format+0x144>  // b.tstop
 2080580:	aa0103e0 	mov	x0, x1
 2080584:	91002c00 	add	x0, x0, #0xb
 2080588:	927df000 	and	x0, x0, #0xfffffffffffffff8
 208058c:	f9000260 	str	x0, [x19]
 2080590:	aa0103e0 	mov	x0, x1
 2080594:	1400000f 	b	20805d0 <tfp_format+0x17c>
 2080598:	11002002 	add	w2, w0, #0x8
 208059c:	b9001a62 	str	w2, [x19, #24]
 20805a0:	b9401a62 	ldr	w2, [x19, #24]
 20805a4:	7100005f 	cmp	w2, #0x0
 20805a8:	540000ed 	b.le	20805c4 <tfp_format+0x170>
 20805ac:	aa0103e0 	mov	x0, x1
 20805b0:	91002c00 	add	x0, x0, #0xb
 20805b4:	927df000 	and	x0, x0, #0xfffffffffffffff8
 20805b8:	f9000260 	str	x0, [x19]
 20805bc:	aa0103e0 	mov	x0, x1
 20805c0:	14000004 	b	20805d0 <tfp_format+0x17c>
 20805c4:	f9400661 	ldr	x1, [x19, #8]
 20805c8:	93407c00 	sxtw	x0, w0
 20805cc:	8b000020 	add	x0, x1, x0
 20805d0:	b9400000 	ldr	w0, [x0]
 20805d4:	910143a1 	add	x1, x29, #0x50
 20805d8:	aa0103e3 	mov	x3, x1
 20805dc:	52800002 	mov	w2, #0x0                   	// #0
 20805e0:	52800141 	mov	w1, #0xa                   	// #10
 20805e4:	97fffeb9 	bl	20800c8 <ui2a>
                    putchw(putp,putf,w,lz,bf);
 20805e8:	b9404fa0 	ldr	w0, [x29, #76]
 20805ec:	910143a1 	add	x1, x29, #0x50
 20805f0:	aa0103e4 	mov	x4, x1
 20805f4:	39417ba3 	ldrb	w3, [x29, #94]
 20805f8:	2a0003e2 	mov	w2, w0
 20805fc:	f9401ba1 	ldr	x1, [x29, #48]
 2080600:	f9401fa0 	ldr	x0, [x29, #56]
 2080604:	97ffff5d 	bl	2080378 <putchw>
                    break;
 2080608:	14000097 	b	2080864 <tfp_format+0x410>
                    i2a(va_arg(va, int),bf);
 208060c:	b9401a60 	ldr	w0, [x19, #24]
 2080610:	f9400261 	ldr	x1, [x19]
 2080614:	7100001f 	cmp	w0, #0x0
 2080618:	540000eb 	b.lt	2080634 <tfp_format+0x1e0>  // b.tstop
 208061c:	aa0103e0 	mov	x0, x1
 2080620:	91002c00 	add	x0, x0, #0xb
 2080624:	927df000 	and	x0, x0, #0xfffffffffffffff8
 2080628:	f9000260 	str	x0, [x19]
 208062c:	aa0103e0 	mov	x0, x1
 2080630:	1400000f 	b	208066c <tfp_format+0x218>
 2080634:	11002002 	add	w2, w0, #0x8
 2080638:	b9001a62 	str	w2, [x19, #24]
 208063c:	b9401a62 	ldr	w2, [x19, #24]
 2080640:	7100005f 	cmp	w2, #0x0
 2080644:	540000ed 	b.le	2080660 <tfp_format+0x20c>
 2080648:	aa0103e0 	mov	x0, x1
 208064c:	91002c00 	add	x0, x0, #0xb
 2080650:	927df000 	and	x0, x0, #0xfffffffffffffff8
 2080654:	f9000260 	str	x0, [x19]
 2080658:	aa0103e0 	mov	x0, x1
 208065c:	14000004 	b	208066c <tfp_format+0x218>
 2080660:	f9400661 	ldr	x1, [x19, #8]
 2080664:	93407c00 	sxtw	x0, w0
 2080668:	8b000020 	add	x0, x1, x0
 208066c:	b9400000 	ldr	w0, [x0]
 2080670:	910143a1 	add	x1, x29, #0x50
 2080674:	97fffedf 	bl	20801f0 <i2a>
                    putchw(putp,putf,w,lz,bf);
 2080678:	b9404fa0 	ldr	w0, [x29, #76]
 208067c:	910143a1 	add	x1, x29, #0x50
 2080680:	aa0103e4 	mov	x4, x1
 2080684:	39417ba3 	ldrb	w3, [x29, #94]
 2080688:	2a0003e2 	mov	w2, w0
 208068c:	f9401ba1 	ldr	x1, [x29, #48]
 2080690:	f9401fa0 	ldr	x0, [x29, #56]
 2080694:	97ffff39 	bl	2080378 <putchw>
                    break;
 2080698:	14000073 	b	2080864 <tfp_format+0x410>
                    ui2a(va_arg(va, unsigned int),16,(ch=='X'),bf);
 208069c:	b9401a60 	ldr	w0, [x19, #24]
 20806a0:	f9400261 	ldr	x1, [x19]
 20806a4:	7100001f 	cmp	w0, #0x0
 20806a8:	540000eb 	b.lt	20806c4 <tfp_format+0x270>  // b.tstop
 20806ac:	aa0103e0 	mov	x0, x1
 20806b0:	91002c00 	add	x0, x0, #0xb
 20806b4:	927df000 	and	x0, x0, #0xfffffffffffffff8
 20806b8:	f9000260 	str	x0, [x19]
 20806bc:	aa0103e0 	mov	x0, x1
 20806c0:	1400000f 	b	20806fc <tfp_format+0x2a8>
 20806c4:	11002002 	add	w2, w0, #0x8
 20806c8:	b9001a62 	str	w2, [x19, #24]
 20806cc:	b9401a62 	ldr	w2, [x19, #24]
 20806d0:	7100005f 	cmp	w2, #0x0
 20806d4:	540000ed 	b.le	20806f0 <tfp_format+0x29c>
 20806d8:	aa0103e0 	mov	x0, x1
 20806dc:	91002c00 	add	x0, x0, #0xb
 20806e0:	927df000 	and	x0, x0, #0xfffffffffffffff8
 20806e4:	f9000260 	str	x0, [x19]
 20806e8:	aa0103e0 	mov	x0, x1
 20806ec:	14000004 	b	20806fc <tfp_format+0x2a8>
 20806f0:	f9400661 	ldr	x1, [x19, #8]
 20806f4:	93407c00 	sxtw	x0, w0
 20806f8:	8b000020 	add	x0, x1, x0
 20806fc:	b9400004 	ldr	w4, [x0]
 2080700:	39417fa0 	ldrb	w0, [x29, #95]
 2080704:	7101601f 	cmp	w0, #0x58
 2080708:	1a9f17e0 	cset	w0, eq  // eq = none
 208070c:	12001c00 	and	w0, w0, #0xff
 2080710:	2a0003e1 	mov	w1, w0
 2080714:	910143a0 	add	x0, x29, #0x50
 2080718:	aa0003e3 	mov	x3, x0
 208071c:	2a0103e2 	mov	w2, w1
 2080720:	52800201 	mov	w1, #0x10                  	// #16
 2080724:	2a0403e0 	mov	w0, w4
 2080728:	97fffe68 	bl	20800c8 <ui2a>
                    putchw(putp,putf,w,lz,bf);
 208072c:	b9404fa0 	ldr	w0, [x29, #76]
 2080730:	910143a1 	add	x1, x29, #0x50
 2080734:	aa0103e4 	mov	x4, x1
 2080738:	39417ba3 	ldrb	w3, [x29, #94]
 208073c:	2a0003e2 	mov	w2, w0
 2080740:	f9401ba1 	ldr	x1, [x29, #48]
 2080744:	f9401fa0 	ldr	x0, [x29, #56]
 2080748:	97ffff0c 	bl	2080378 <putchw>
                    break;
 208074c:	14000046 	b	2080864 <tfp_format+0x410>
                    putf(putp,(char)(va_arg(va, int)));
 2080750:	b9401a60 	ldr	w0, [x19, #24]
 2080754:	f9400261 	ldr	x1, [x19]
 2080758:	7100001f 	cmp	w0, #0x0
 208075c:	540000eb 	b.lt	2080778 <tfp_format+0x324>  // b.tstop
 2080760:	aa0103e0 	mov	x0, x1
 2080764:	91002c00 	add	x0, x0, #0xb
 2080768:	927df000 	and	x0, x0, #0xfffffffffffffff8
 208076c:	f9000260 	str	x0, [x19]
 2080770:	aa0103e0 	mov	x0, x1
 2080774:	1400000f 	b	20807b0 <tfp_format+0x35c>
 2080778:	11002002 	add	w2, w0, #0x8
 208077c:	b9001a62 	str	w2, [x19, #24]
 2080780:	b9401a62 	ldr	w2, [x19, #24]
 2080784:	7100005f 	cmp	w2, #0x0
 2080788:	540000ed 	b.le	20807a4 <tfp_format+0x350>
 208078c:	aa0103e0 	mov	x0, x1
 2080790:	91002c00 	add	x0, x0, #0xb
 2080794:	927df000 	and	x0, x0, #0xfffffffffffffff8
 2080798:	f9000260 	str	x0, [x19]
 208079c:	aa0103e0 	mov	x0, x1
 20807a0:	14000004 	b	20807b0 <tfp_format+0x35c>
 20807a4:	f9400661 	ldr	x1, [x19, #8]
 20807a8:	93407c00 	sxtw	x0, w0
 20807ac:	8b000020 	add	x0, x1, x0
 20807b0:	b9400000 	ldr	w0, [x0]
 20807b4:	12001c00 	and	w0, w0, #0xff
 20807b8:	f9401ba2 	ldr	x2, [x29, #48]
 20807bc:	2a0003e1 	mov	w1, w0
 20807c0:	f9401fa0 	ldr	x0, [x29, #56]
 20807c4:	d63f0040 	blr	x2
                    break;
 20807c8:	14000027 	b	2080864 <tfp_format+0x410>
                    putchw(putp,putf,w,0,va_arg(va, char*));
 20807cc:	b9404fa5 	ldr	w5, [x29, #76]
 20807d0:	b9401a60 	ldr	w0, [x19, #24]
 20807d4:	f9400261 	ldr	x1, [x19]
 20807d8:	7100001f 	cmp	w0, #0x0
 20807dc:	540000eb 	b.lt	20807f8 <tfp_format+0x3a4>  // b.tstop
 20807e0:	aa0103e0 	mov	x0, x1
 20807e4:	91003c00 	add	x0, x0, #0xf
 20807e8:	927df000 	and	x0, x0, #0xfffffffffffffff8
 20807ec:	f9000260 	str	x0, [x19]
 20807f0:	aa0103e0 	mov	x0, x1
 20807f4:	1400000f 	b	2080830 <tfp_format+0x3dc>
 20807f8:	11002002 	add	w2, w0, #0x8
 20807fc:	b9001a62 	str	w2, [x19, #24]
 2080800:	b9401a62 	ldr	w2, [x19, #24]
 2080804:	7100005f 	cmp	w2, #0x0
 2080808:	540000ed 	b.le	2080824 <tfp_format+0x3d0>
 208080c:	aa0103e0 	mov	x0, x1
 2080810:	91003c00 	add	x0, x0, #0xf
 2080814:	927df000 	and	x0, x0, #0xfffffffffffffff8
 2080818:	f9000260 	str	x0, [x19]
 208081c:	aa0103e0 	mov	x0, x1
 2080820:	14000004 	b	2080830 <tfp_format+0x3dc>
 2080824:	f9400661 	ldr	x1, [x19, #8]
 2080828:	93407c00 	sxtw	x0, w0
 208082c:	8b000020 	add	x0, x1, x0
 2080830:	f9400000 	ldr	x0, [x0]
 2080834:	aa0003e4 	mov	x4, x0
 2080838:	52800003 	mov	w3, #0x0                   	// #0
 208083c:	2a0503e2 	mov	w2, w5
 2080840:	f9401ba1 	ldr	x1, [x29, #48]
 2080844:	f9401fa0 	ldr	x0, [x29, #56]
 2080848:	97fffecc 	bl	2080378 <putchw>
                    break;
 208084c:	14000006 	b	2080864 <tfp_format+0x410>
                    putf(putp,ch);
 2080850:	f9401ba2 	ldr	x2, [x29, #48]
 2080854:	39417fa1 	ldrb	w1, [x29, #95]
 2080858:	f9401fa0 	ldr	x0, [x29, #56]
 208085c:	d63f0040 	blr	x2
                    break;
 2080860:	d503201f 	nop
    while ((ch=*(fmt++))) {
 2080864:	f94017a0 	ldr	x0, [x29, #40]
 2080868:	91000401 	add	x1, x0, #0x1
 208086c:	f90017a1 	str	x1, [x29, #40]
 2080870:	39400000 	ldrb	w0, [x0]
 2080874:	39017fa0 	strb	w0, [x29, #95]
 2080878:	39417fa0 	ldrb	w0, [x29, #95]
 208087c:	7100001f 	cmp	w0, #0x0
 2080880:	54ffdfa1 	b.ne	2080474 <tfp_format+0x20>  // b.any
                }
            }
        }
    abort:;
 2080884:	14000002 	b	208088c <tfp_format+0x438>
                    goto abort;
 2080888:	d503201f 	nop
    }
 208088c:	d503201f 	nop
 2080890:	f9400bf3 	ldr	x19, [sp, #16]
 2080894:	a8c67bfd 	ldp	x29, x30, [sp], #96
 2080898:	d65f03c0 	ret

000000000208089c <init_printf>:


void init_printf(void* putp,void (*putf) (void*,char))
    {
 208089c:	d10043ff 	sub	sp, sp, #0x10
 20808a0:	f90007e0 	str	x0, [sp, #8]
 20808a4:	f90003e1 	str	x1, [sp]
    stdout_putf=putf;
 20808a8:	90000000 	adrp	x0, 2080000 <_start>
 20808ac:	91388000 	add	x0, x0, #0xe20
 20808b0:	f94003e1 	ldr	x1, [sp]
 20808b4:	f9000001 	str	x1, [x0]
    stdout_putp=putp;
 20808b8:	90000000 	adrp	x0, 2080000 <_start>
 20808bc:	9138a000 	add	x0, x0, #0xe28
 20808c0:	f94007e1 	ldr	x1, [sp, #8]
 20808c4:	f9000001 	str	x1, [x0]
    }
 20808c8:	d503201f 	nop
 20808cc:	910043ff 	add	sp, sp, #0x10
 20808d0:	d65f03c0 	ret

00000000020808d4 <tfp_printf>:

void tfp_printf(char *fmt, ...)
    {
 20808d4:	a9b67bfd 	stp	x29, x30, [sp, #-160]!
 20808d8:	910003fd 	mov	x29, sp
 20808dc:	f9001fa0 	str	x0, [x29, #56]
 20808e0:	f90037a1 	str	x1, [x29, #104]
 20808e4:	f9003ba2 	str	x2, [x29, #112]
 20808e8:	f9003fa3 	str	x3, [x29, #120]
 20808ec:	f90043a4 	str	x4, [x29, #128]
 20808f0:	f90047a5 	str	x5, [x29, #136]
 20808f4:	f9004ba6 	str	x6, [x29, #144]
 20808f8:	f9004fa7 	str	x7, [x29, #152]
    va_list va;
    va_start(va,fmt);
 20808fc:	910283a0 	add	x0, x29, #0xa0
 2080900:	f90023a0 	str	x0, [x29, #64]
 2080904:	910283a0 	add	x0, x29, #0xa0
 2080908:	f90027a0 	str	x0, [x29, #72]
 208090c:	910183a0 	add	x0, x29, #0x60
 2080910:	f9002ba0 	str	x0, [x29, #80]
 2080914:	128006e0 	mov	w0, #0xffffffc8            	// #-56
 2080918:	b9005ba0 	str	w0, [x29, #88]
 208091c:	b9005fbf 	str	wzr, [x29, #92]
    tfp_format(stdout_putp,stdout_putf,fmt,va);
 2080920:	90000000 	adrp	x0, 2080000 <_start>
 2080924:	9138a000 	add	x0, x0, #0xe28
 2080928:	f9400004 	ldr	x4, [x0]
 208092c:	90000000 	adrp	x0, 2080000 <_start>
 2080930:	91388000 	add	x0, x0, #0xe20
 2080934:	f9400005 	ldr	x5, [x0]
 2080938:	910043a2 	add	x2, x29, #0x10
 208093c:	910103a3 	add	x3, x29, #0x40
 2080940:	a9400460 	ldp	x0, x1, [x3]
 2080944:	a9000440 	stp	x0, x1, [x2]
 2080948:	a9410460 	ldp	x0, x1, [x3, #16]
 208094c:	a9010440 	stp	x0, x1, [x2, #16]
 2080950:	910043a0 	add	x0, x29, #0x10
 2080954:	aa0003e3 	mov	x3, x0
 2080958:	f9401fa2 	ldr	x2, [x29, #56]
 208095c:	aa0503e1 	mov	x1, x5
 2080960:	aa0403e0 	mov	x0, x4
 2080964:	97fffebc 	bl	2080454 <tfp_format>
    va_end(va);
    }
 2080968:	d503201f 	nop
 208096c:	a8ca7bfd 	ldp	x29, x30, [sp], #160
 2080970:	d65f03c0 	ret

0000000002080974 <putcp>:

static void putcp(void* p,char c)
    {
 2080974:	d10043ff 	sub	sp, sp, #0x10
 2080978:	f90007e0 	str	x0, [sp, #8]
 208097c:	39001fe1 	strb	w1, [sp, #7]
    *(*((char**)p))++ = c;
 2080980:	f94007e0 	ldr	x0, [sp, #8]
 2080984:	f9400000 	ldr	x0, [x0]
 2080988:	91000402 	add	x2, x0, #0x1
 208098c:	f94007e1 	ldr	x1, [sp, #8]
 2080990:	f9000022 	str	x2, [x1]
 2080994:	39401fe1 	ldrb	w1, [sp, #7]
 2080998:	39000001 	strb	w1, [x0]
    }
 208099c:	d503201f 	nop
 20809a0:	910043ff 	add	sp, sp, #0x10
 20809a4:	d65f03c0 	ret

00000000020809a8 <tfp_sprintf>:



void tfp_sprintf(char* s,char *fmt, ...)
    {
 20809a8:	a9b77bfd 	stp	x29, x30, [sp, #-144]!
 20809ac:	910003fd 	mov	x29, sp
 20809b0:	f9001fa0 	str	x0, [x29, #56]
 20809b4:	f9001ba1 	str	x1, [x29, #48]
 20809b8:	f90033a2 	str	x2, [x29, #96]
 20809bc:	f90037a3 	str	x3, [x29, #104]
 20809c0:	f9003ba4 	str	x4, [x29, #112]
 20809c4:	f9003fa5 	str	x5, [x29, #120]
 20809c8:	f90043a6 	str	x6, [x29, #128]
 20809cc:	f90047a7 	str	x7, [x29, #136]
    va_list va;
    va_start(va,fmt);
 20809d0:	910243a0 	add	x0, x29, #0x90
 20809d4:	f90023a0 	str	x0, [x29, #64]
 20809d8:	910243a0 	add	x0, x29, #0x90
 20809dc:	f90027a0 	str	x0, [x29, #72]
 20809e0:	910183a0 	add	x0, x29, #0x60
 20809e4:	f9002ba0 	str	x0, [x29, #80]
 20809e8:	128005e0 	mov	w0, #0xffffffd0            	// #-48
 20809ec:	b9005ba0 	str	w0, [x29, #88]
 20809f0:	b9005fbf 	str	wzr, [x29, #92]
    tfp_format(&s,putcp,fmt,va);
 20809f4:	910043a2 	add	x2, x29, #0x10
 20809f8:	910103a3 	add	x3, x29, #0x40
 20809fc:	a9400460 	ldp	x0, x1, [x3]
 2080a00:	a9000440 	stp	x0, x1, [x2]
 2080a04:	a9410460 	ldp	x0, x1, [x3, #16]
 2080a08:	a9010440 	stp	x0, x1, [x2, #16]
 2080a0c:	910043a2 	add	x2, x29, #0x10
 2080a10:	90000000 	adrp	x0, 2080000 <_start>
 2080a14:	9125d001 	add	x1, x0, #0x974
 2080a18:	9100e3a0 	add	x0, x29, #0x38
 2080a1c:	aa0203e3 	mov	x3, x2
 2080a20:	f9401ba2 	ldr	x2, [x29, #48]
 2080a24:	97fffe8c 	bl	2080454 <tfp_format>
    putcp(&s,0);
 2080a28:	9100e3a0 	add	x0, x29, #0x38
 2080a2c:	52800001 	mov	w1, #0x0                   	// #0
 2080a30:	97ffffd1 	bl	2080974 <putcp>
    va_end(va);
    }
 2080a34:	d503201f 	nop
 2080a38:	a8c97bfd 	ldp	x29, x30, [sp], #144
 2080a3c:	d65f03c0 	ret

0000000002080a40 <uart_send>:
#include "utils.h"
#include "peripherals/uart.h"

void uart_send ( char c )
{
 2080a40:	a9be7bfd 	stp	x29, x30, [sp, #-32]!
 2080a44:	910003fd 	mov	x29, sp
 2080a48:	39007fa0 	strb	w0, [x29, #31]
	while(!(get32(UART2_LSR) & UART_LSR_THRE)) {
 2080a4c:	d503201f 	nop
 2080a50:	d2800280 	mov	x0, #0x14                  	// #20
 2080a54:	f2bfe340 	movk	x0, #0xff1a, lsl #16
 2080a58:	940000c7 	bl	2080d74 <get32>
 2080a5c:	121b0000 	and	w0, w0, #0x20
 2080a60:	7100001f 	cmp	w0, #0x0
 2080a64:	54ffff60 	b.eq	2080a50 <uart_send+0x10>  // b.none
	}
	put32(UART2_THR,c);
 2080a68:	39407fa0 	ldrb	w0, [x29, #31]
 2080a6c:	2a0003e1 	mov	w1, w0
 2080a70:	d2bfe340 	mov	x0, #0xff1a0000            	// #4279894016
 2080a74:	940000bd 	bl	2080d68 <put32>
}
 2080a78:	d503201f 	nop
 2080a7c:	a8c27bfd 	ldp	x29, x30, [sp], #32
 2080a80:	d65f03c0 	ret

0000000002080a84 <uart_recv>:

char uart_recv ( void )
{
 2080a84:	a9bf7bfd 	stp	x29, x30, [sp, #-16]!
 2080a88:	910003fd 	mov	x29, sp
    while(1) {
        if(get32(UART2_LSR)&0x01)
 2080a8c:	d2800280 	mov	x0, #0x14                  	// #20
 2080a90:	f2bfe340 	movk	x0, #0xff1a, lsl #16
 2080a94:	940000b8 	bl	2080d74 <get32>
 2080a98:	12000000 	and	w0, w0, #0x1
 2080a9c:	7100001f 	cmp	w0, #0x0
 2080aa0:	54000041 	b.ne	2080aa8 <uart_recv+0x24>  // b.any
 2080aa4:	17fffffa 	b	2080a8c <uart_recv+0x8>
            break;
 2080aa8:	d503201f 	nop
    }
    return(get32(UART2_THR)&0xFF);
 2080aac:	d2bfe340 	mov	x0, #0xff1a0000            	// #4279894016
 2080ab0:	940000b1 	bl	2080d74 <get32>
 2080ab4:	12001c00 	and	w0, w0, #0xff
}
 2080ab8:	a8c17bfd 	ldp	x29, x30, [sp], #16
 2080abc:	d65f03c0 	ret

0000000002080ac0 <uart_send_string>:

void uart_send_string(char* str)
{
 2080ac0:	a9bd7bfd 	stp	x29, x30, [sp, #-48]!
 2080ac4:	910003fd 	mov	x29, sp
 2080ac8:	f9000fa0 	str	x0, [x29, #24]
	char c;
	while (*str) {
 2080acc:	14000010 	b	2080b0c <uart_send_string+0x4c>
		if (*str == '\n')
 2080ad0:	f9400fa0 	ldr	x0, [x29, #24]
 2080ad4:	39400000 	ldrb	w0, [x0]
 2080ad8:	7100281f 	cmp	w0, #0xa
 2080adc:	54000081 	b.ne	2080aec <uart_send_string+0x2c>  // b.any
			c = '\r';
 2080ae0:	528001a0 	mov	w0, #0xd                   	// #13
 2080ae4:	3900bfa0 	strb	w0, [x29, #47]
 2080ae8:	14000004 	b	2080af8 <uart_send_string+0x38>
		else
			c = *str;
 2080aec:	f9400fa0 	ldr	x0, [x29, #24]
 2080af0:	39400000 	ldrb	w0, [x0]
 2080af4:	3900bfa0 	strb	w0, [x29, #47]
		uart_send(c);
 2080af8:	3940bfa0 	ldrb	w0, [x29, #47]
 2080afc:	97ffffd1 	bl	2080a40 <uart_send>
		str++;
 2080b00:	f9400fa0 	ldr	x0, [x29, #24]
 2080b04:	91000400 	add	x0, x0, #0x1
 2080b08:	f9000fa0 	str	x0, [x29, #24]
	while (*str) {
 2080b0c:	f9400fa0 	ldr	x0, [x29, #24]
 2080b10:	39400000 	ldrb	w0, [x0]
 2080b14:	7100001f 	cmp	w0, #0x0
 2080b18:	54fffdc1 	b.ne	2080ad0 <uart_send_string+0x10>  // b.any
	}
}
 2080b1c:	d503201f 	nop
 2080b20:	a8c37bfd 	ldp	x29, x30, [sp], #48
 2080b24:	d65f03c0 	ret

0000000002080b28 <uart_init>:

void uart_init ( void )
{
 2080b28:	a9be7bfd 	stp	x29, x30, [sp, #-32]!
 2080b2c:	910003fd 	mov	x29, sp
	unsigned int selector;

	/* set IOMUX as UART2C */
	selector = get32(GRF_GPIO4C_IOMUX);
 2080b30:	d29c0500 	mov	x0, #0xe028                	// #57384
 2080b34:	f2bfeee0 	movk	x0, #0xff77, lsl #16
 2080b38:	9400008f 	bl	2080d74 <get32>
 2080b3c:	b9001fa0 	str	w0, [x29, #28]
	selector &= ~(15<<6);                   // clean [9:6]
 2080b40:	b9401fa0 	ldr	w0, [x29, #28]
 2080b44:	12166c00 	and	w0, w0, #0xfffffc3f
 2080b48:	b9001fa0 	str	w0, [x29, #28]
	selector |= 5<<6;                      // set 4b'0101 select UART2C IN/OUT
 2080b4c:	b9401fa1 	ldr	w1, [x29, #28]
 2080b50:	52802800 	mov	w0, #0x140                 	// #320
 2080b54:	2a000020 	orr	w0, w1, w0
 2080b58:	b9001fa0 	str	w0, [x29, #28]
	// put32(GRF_GPIO4C_IOMUX,selector);
	put32(GRF_GPIO4C_IOMUX,0x03c00140);
 2080b5c:	52802801 	mov	w1, #0x140                 	// #320
 2080b60:	72a07801 	movk	w1, #0x3c0, lsl #16
 2080b64:	d29c0500 	mov	x0, #0xe028                	// #57384
 2080b68:	f2bfeee0 	movk	x0, #0xff77, lsl #16
 2080b6c:	9400007f 	bl	2080d68 <put32>


	/* Set channel C as UART2 input */
	selector = get32(GRF_SOC_CON7);
 2080b70:	d29c4380 	mov	x0, #0xe21c                	// #57884
 2080b74:	f2bfeee0 	movk	x0, #0xff77, lsl #16
 2080b78:	9400007f 	bl	2080d74 <get32>
 2080b7c:	b9001fa0 	str	w0, [x29, #28]
	selector &= ~(3 << 10);
 2080b80:	b9401fa0 	ldr	w0, [x29, #28]
 2080b84:	12147400 	and	w0, w0, #0xfffff3ff
 2080b88:	b9001fa0 	str	w0, [x29, #28]
	selector |= 2 << 10;
 2080b8c:	b9401fa0 	ldr	w0, [x29, #28]
 2080b90:	32150000 	orr	w0, w0, #0x800
 2080b94:	b9001fa0 	str	w0, [x29, #28]
	put32(GRF_SOC_CON7,selector);
 2080b98:	b9401fa1 	ldr	w1, [x29, #28]
 2080b9c:	d29c4380 	mov	x0, #0xe21c                	// #57884
 2080ba0:	f2bfeee0 	movk	x0, #0xff77, lsl #16
 2080ba4:	94000071 	bl	2080d68 <put32>


	put32(UART2_IER, DISABLE_INTR);
 2080ba8:	52800001 	mov	w1, #0x0                   	// #0
 2080bac:	d2800080 	mov	x0, #0x4                   	// #4
 2080bb0:	f2bfe340 	movk	x0, #0xff1a, lsl #16
 2080bb4:	9400006d 	bl	2080d68 <put32>
	put32(UART2_MCR, UART_MCRVAL);
 2080bb8:	52800061 	mov	w1, #0x3                   	// #3
 2080bbc:	d2800200 	mov	x0, #0x10                  	// #16
 2080bc0:	f2bfe340 	movk	x0, #0xff1a, lsl #16
 2080bc4:	94000069 	bl	2080d68 <put32>
	put32(UART2_FCR, UART_FCR_DEFVAL);
 2080bc8:	528000e1 	mov	w1, #0x7                   	// #7
 2080bcc:	d2800100 	mov	x0, #0x8                   	// #8
 2080bd0:	f2bfe340 	movk	x0, #0xff1a, lsl #16
 2080bd4:	94000065 	bl	2080d68 <put32>
        put32(UART2_LCR, UART_LCR_BKSE | UART_LCRVAL);
 2080bd8:	52801061 	mov	w1, #0x83                  	// #131
 2080bdc:	d2800180 	mov	x0, #0xc                   	// #12
 2080be0:	f2bfe340 	movk	x0, #0xff1a, lsl #16
 2080be4:	94000061 	bl	2080d68 <put32>
        put32(UART2_DLL, UART2_1_5_MBPS_DIVISOR & 0xff);
 2080be8:	52800021 	mov	w1, #0x1                   	// #1
 2080bec:	d2bfe340 	mov	x0, #0xff1a0000            	// #4279894016
 2080bf0:	9400005e 	bl	2080d68 <put32>
        put32(UART2_DLM, (UART2_1_5_MBPS_DIVISOR >> 8) & 0xff);
 2080bf4:	52800001 	mov	w1, #0x0                   	// #0
 2080bf8:	d2800080 	mov	x0, #0x4                   	// #4
 2080bfc:	f2bfe340 	movk	x0, #0xff1a, lsl #16
 2080c00:	9400005a 	bl	2080d68 <put32>
        put32(UART2_LCR, UART_LCRVAL);
 2080c04:	52800061 	mov	w1, #0x3                   	// #3
 2080c08:	d2800180 	mov	x0, #0xc                   	// #12
 2080c0c:	f2bfe340 	movk	x0, #0xff1a, lsl #16
 2080c10:	94000056 	bl	2080d68 <put32>
	put32(UART2_MCR, UART_MCRVAL);
 2080c14:	52800061 	mov	w1, #0x3                   	// #3
 2080c18:	d2800200 	mov	x0, #0x10                  	// #16
 2080c1c:	f2bfe340 	movk	x0, #0xff1a, lsl #16
 2080c20:	94000052 	bl	2080d68 <put32>
}
 2080c24:	d503201f 	nop
 2080c28:	a8c27bfd 	ldp	x29, x30, [sp], #32
 2080c2c:	d65f03c0 	ret

0000000002080c30 <putc>:

// This function is required by printf function
void putc ( void* p, char c)
{
 2080c30:	a9be7bfd 	stp	x29, x30, [sp, #-32]!
 2080c34:	910003fd 	mov	x29, sp
 2080c38:	f9000fa0 	str	x0, [x29, #24]
 2080c3c:	39005fa1 	strb	w1, [x29, #23]
	uart_send(c);
 2080c40:	39405fa0 	ldrb	w0, [x29, #23]
 2080c44:	97ffff7f 	bl	2080a40 <uart_send>
}
 2080c48:	d503201f 	nop
 2080c4c:	a8c27bfd 	ldp	x29, x30, [sp], #32
 2080c50:	d65f03c0 	ret

0000000002080c54 <gpio_led_init>:
#include "utils.h"
#include "peripherals/gpio.h"

void gpio_led_init(void)
{
 2080c54:	a9be7bfd 	stp	x29, x30, [sp, #-32]!
 2080c58:	910003fd 	mov	x29, sp
	unsigned int reg_val;
	reg_val = get32(PMUGRF_GPIO0B_IOMUX);
 2080c5c:	d2800080 	mov	x0, #0x4                   	// #4
 2080c60:	f2bfe640 	movk	x0, #0xff32, lsl #16
 2080c64:	94000044 	bl	2080d74 <get32>
 2080c68:	b9001fa0 	str	w0, [x29, #28]
	reg_val &= ~(FUNC_MASK << GPIO0B4_SHIFT);
 2080c6c:	b9401fa0 	ldr	w0, [x29, #28]
 2080c70:	12167400 	and	w0, w0, #0xfffffcff
 2080c74:	b9001fa0 	str	w0, [x29, #28]
	reg_val |= (GPIO_FUNC << GPIO0B4_SHIFT);
	put32(PMUGRF_GPIO0B_IOMUX, reg_val);
 2080c78:	b9401fa1 	ldr	w1, [x29, #28]
 2080c7c:	d2800080 	mov	x0, #0x4                   	// #4
 2080c80:	f2bfe640 	movk	x0, #0xff32, lsl #16
 2080c84:	94000039 	bl	2080d68 <put32>
}
 2080c88:	d503201f 	nop
 2080c8c:	a8c27bfd 	ldp	x29, x30, [sp], #32
 2080c90:	d65f03c0 	ret

0000000002080c94 <gpio_led_on>:

void gpio_led_on(void)
{
 2080c94:	a9be7bfd 	stp	x29, x30, [sp, #-32]!
 2080c98:	910003fd 	mov	x29, sp
	unsigned int reg_val;
	reg_val = get32(GPIO0_SWPORTA_DDR);
 2080c9c:	d2800080 	mov	x0, #0x4                   	// #4
 2080ca0:	f2bfee40 	movk	x0, #0xff72, lsl #16
 2080ca4:	94000034 	bl	2080d74 <get32>
 2080ca8:	b9001fa0 	str	w0, [x29, #28]
	reg_val |= (GPIO_OUT << GPIO0_13_SHIFT);
 2080cac:	b9401fa0 	ldr	w0, [x29, #28]
 2080cb0:	32130000 	orr	w0, w0, #0x2000
 2080cb4:	b9001fa0 	str	w0, [x29, #28]
	put32(GPIO0_SWPORTA_DDR, reg_val);
 2080cb8:	b9401fa1 	ldr	w1, [x29, #28]
 2080cbc:	d2800080 	mov	x0, #0x4                   	// #4
 2080cc0:	f2bfee40 	movk	x0, #0xff72, lsl #16
 2080cc4:	94000029 	bl	2080d68 <put32>
	reg_val = get32(GPIO0_SWPORTA_DR);
 2080cc8:	d2bfee40 	mov	x0, #0xff720000            	// #4285661184
 2080ccc:	9400002a 	bl	2080d74 <get32>
 2080cd0:	b9001fa0 	str	w0, [x29, #28]
	reg_val |= (GPIO_LED_ON << GPIO0_13_SHIFT);
 2080cd4:	b9401fa0 	ldr	w0, [x29, #28]
 2080cd8:	32130000 	orr	w0, w0, #0x2000
 2080cdc:	b9001fa0 	str	w0, [x29, #28]
	put32(GPIO0_SWPORTA_DR, reg_val);
 2080ce0:	b9401fa1 	ldr	w1, [x29, #28]
 2080ce4:	d2bfee40 	mov	x0, #0xff720000            	// #4285661184
 2080ce8:	94000020 	bl	2080d68 <put32>
}
 2080cec:	d503201f 	nop
 2080cf0:	a8c27bfd 	ldp	x29, x30, [sp], #32
 2080cf4:	d65f03c0 	ret

0000000002080cf8 <kernel_main>:
#include "printf.h"
#include "utils.h"
#include "uart.h"

void kernel_main(void)
{
 2080cf8:	a9be7bfd 	stp	x29, x30, [sp, #-32]!
 2080cfc:	910003fd 	mov	x29, sp
	int el;
	init_printf(0, putc);
 2080d00:	90000000 	adrp	x0, 2080000 <_start>
 2080d04:	f9470000 	ldr	x0, [x0, #3584]
 2080d08:	aa0003e1 	mov	x1, x0
 2080d0c:	d2800000 	mov	x0, #0x0                   	// #0
 2080d10:	97fffee3 	bl	208089c <init_printf>
	el = get_el();
 2080d14:	9400001b 	bl	2080d80 <get_el>
 2080d18:	b9001fa0 	str	w0, [x29, #28]
	printf("Exception level: %d \r\n", el);
 2080d1c:	90000000 	adrp	x0, 2080000 <_start>
 2080d20:	91374000 	add	x0, x0, #0xdd0
 2080d24:	b9401fa1 	ldr	w1, [x29, #28]
 2080d28:	97fffeeb 	bl	20808d4 <tfp_printf>
	//switch_to_el1_from_el2();
	//el = get_el();
	//printf("Exception level: %d \r\n", el);
	gpio_led_init();
 2080d2c:	97ffffca 	bl	2080c54 <gpio_led_init>
	gpio_led_on();
 2080d30:	97ffffd9 	bl	2080c94 <gpio_led_on>
	uart_init();
 2080d34:	97ffff7d 	bl	2080b28 <uart_init>
	uart_send_string("Hello, world!\n");
 2080d38:	90000000 	adrp	x0, 2080000 <_start>
 2080d3c:	9137a000 	add	x0, x0, #0xde8
 2080d40:	97ffff60 	bl	2080ac0 <uart_send_string>
	while (1) {
		uart_send(uart_recv());
 2080d44:	97ffff50 	bl	2080a84 <uart_recv>
 2080d48:	12001c00 	and	w0, w0, #0xff
 2080d4c:	97ffff3d 	bl	2080a40 <uart_send>
 2080d50:	17fffffd 	b	2080d44 <kernel_main+0x4c>

0000000002080d54 <memzero>:
 2080d54:	f800841f 	str	xzr, [x0], #8
 2080d58:	f1002021 	subs	x1, x1, #0x8
 2080d5c:	54ffffcc 	b.gt	2080d54 <memzero>
 2080d60:	d65f03c0 	ret
 2080d64:	00000000 	.inst	0x00000000 ; undefined

0000000002080d68 <put32>:
 2080d68:	d5033fbf 	dmb	sy
 2080d6c:	b9000001 	str	w1, [x0]
 2080d70:	d65f03c0 	ret

0000000002080d74 <get32>:
 2080d74:	b9400000 	ldr	w0, [x0]
 2080d78:	d5033fbf 	dmb	sy
 2080d7c:	d65f03c0 	ret

0000000002080d80 <get_el>:
 2080d80:	d5384240 	mrs	x0, currentel
 2080d84:	d342fc00 	lsr	x0, x0, #2
 2080d88:	d65f03c0 	ret

0000000002080d8c <switch_to_el1_from_el2>:
 2080d8c:	58000160 	ldr	x0, 2080db8 <switch_to_el1_from_el2+0x2c>
 2080d90:	d5181000 	msr	sctlr_el1, x0
 2080d94:	d53c1000 	mrs	x0, sctlr_el2
 2080d98:	9266f800 	and	x0, x0, #0xfffffffffdffffff
 2080d9c:	d51c1000 	msr	sctlr_el2, x0
 2080da0:	58000100 	ldr	x0, 2080dc0 <switch_to_el1_from_el2+0x34>
 2080da4:	d51c1100 	msr	hcr_el2, x0
 2080da8:	58000100 	ldr	x0, 2080dc8 <switch_to_el1_from_el2+0x3c>
 2080dac:	d51c4000 	msr	spsr_el2, x0
 2080db0:	d51c403e 	msr	elr_el2, x30
 2080db4:	d69f03e0 	eret
 2080db8:	30d00800 	.word	0x30d00800
 2080dbc:	00000000 	.word	0x00000000
 2080dc0:	80000000 	.word	0x80000000
 2080dc4:	00000000 	.word	0x00000000
 2080dc8:	000001c5 	.word	0x000001c5
 2080dcc:	00000000 	.word	0x00000000

Disassembly of section .rodata:

0000000002080dd0 <.rodata>:
 2080dd0:	65637845 	.word	0x65637845
 2080dd4:	6f697470 	.word	0x6f697470
 2080dd8:	656c206e 	.word	0x656c206e
 2080ddc:	3a6c6576 	.word	0x3a6c6576
 2080de0:	20642520 	.word	0x20642520
 2080de4:	00000a0d 	.word	0x00000a0d
 2080de8:	6c6c6548 	.word	0x6c6c6548
 2080dec:	77202c6f 	.word	0x77202c6f
 2080df0:	646c726f 	.word	0x646c726f
 2080df4:	Address 0x0000000002080df4 is out of bounds.


Disassembly of section .got:

0000000002080df8 <_GLOBAL_OFFSET_TABLE_>:
	...
 2080e00:	02080c30 	.inst	0x02080c30 ; undefined
 2080e04:	00000000 	.inst	0x00000000 ; undefined

Disassembly of section .got.plt:

0000000002080e08 <.got.plt>:
	...

Disassembly of section .bss:

0000000002080e20 <bss_begin>:
	...

0000000002080e28 <stdout_putp>:
	...

Disassembly of section .debug_info:

0000000000000000 <.debug_info>:
   0:	00000496 	.inst	0x00000496 ; undefined
   4:	00000004 	.inst	0x00000004 ; undefined
   8:	01080000 	.inst	0x01080000 ; undefined
   c:	00000020 	.inst	0x00000020 ; undefined
  10:	0000b40c 	.inst	0x0000b40c ; undefined
  14:	00011a00 	.inst	0x00011a00 ; undefined
  18:	0800c800 	stlxrb	w0, w0, [x0]
  1c:	00000002 	.inst	0x00000002 ; undefined
  20:	00097800 	.inst	0x00097800 ; undefined
	...
  2c:	006f0200 	.inst	0x006f0200 ; undefined
  30:	28020000 	stnp	w0, w0, [x0, #16]
  34:	00000038 	.inst	0x00000038 ; undefined
  38:	0000f203 	.inst	0x0000f203 ; undefined
  3c:	00032000 	.inst	0x00032000 ; undefined
  40:	00000077 	.inst	0x00000077 ; undefined
  44:	00015004 	.inst	0x00015004 ; undefined
  48:	00007700 	.inst	0x00007700 ; undefined
  4c:	0c040000 	.inst	0x0c040000 ; undefined
  50:	77000000 	.inst	0x77000000 ; undefined
  54:	08000000 	stxrb	w0, w0, [x0]
  58:	00010b04 	.inst	0x00010b04 ; undefined
  5c:	00007700 	.inst	0x00007700 ; undefined
  60:	cd041000 	.inst	0xcd041000 ; undefined
  64:	79000000 	strh	w0, [x0]
  68:	18000000 	ldr	w0, 68 <_start-0x207ff98>
  6c:	0000fc04 	.inst	0x0000fc04 ; undefined
  70:	00007900 	.inst	0x00007900 ; undefined
  74:	05001c00 	orr	z0.h, z0.h, #0x2000
  78:	05040608 	.inst	0x05040608 ; undefined
  7c:	00746e69 	.inst	0x00746e69 ; undefined
  80:	0000f402 	.inst	0x0000f402 ; undefined
  84:	2d630200 	ldp	s0, s0, [x16, #-232]
  88:	02000000 	.inst	0x02000000 ; undefined
  8c:	0000007e 	.inst	0x0000007e ; undefined
  90:	00961801 	.inst	0x00961801 ; undefined
  94:	08070000 	stxrb	w7, w0, [x0]
  98:	0000009c 	.inst	0x0000009c ; undefined
  9c:	0000ac08 	.inst	0x0000ac08 ; undefined
  a0:	00770900 	.inst	0x00770900 ; undefined
  a4:	ac090000 	stnp	q0, q0, [x0, #288]
  a8:	00000000 	.inst	0x00000000 ; undefined
  ac:	e208010a 	.inst	0xe208010a ; undefined
  b0:	0b000000 	add	w0, w0, w0
  b4:	00000084 	.inst	0x00000084 ; undefined
  b8:	008b1901 	.inst	0x008b1901 ; undefined
  bc:	03090000 	.inst	0x03090000 ; undefined
  c0:	02080e20 	.inst	0x02080e20 ; undefined
  c4:	00000000 	.inst	0x00000000 ; undefined
  c8:	0000000b 	.inst	0x0000000b ; undefined
  cc:	771a0100 	.inst	0x771a0100 ; undefined
  d0:	09000000 	.inst	0x09000000 ; undefined
  d4:	080e2803 	stxrb	w14, w3, [x0]
  d8:	00000002 	.inst	0x00000002 ; undefined
  dc:	00c10c00 	.inst	0x00c10c00 ; undefined
  e0:	e2010000 	.inst	0xe2010000 ; undefined
  e4:	020809a8 	.inst	0x020809a8 ; undefined
  e8:	00000000 	.inst	0x00000000 ; undefined
  ec:	00000098 	.inst	0x00000098 ; undefined
  f0:	00000000 	.inst	0x00000000 ; undefined
  f4:	01269c01 	.inst	0x01269c01 ; undefined
  f8:	730d0000 	.inst	0x730d0000 ; undefined
  fc:	26e20100 	.inst	0x26e20100 ; undefined
 100:	03000001 	.inst	0x03000001 ; undefined
 104:	0d7fa891 	.inst	0x0d7fa891 ; undefined
 108:	00746d66 	.inst	0x00746d66 ; undefined
 10c:	0126e201 	.inst	0x0126e201 ; undefined
 110:	91030000 	add	x0, x0, #0xc0
 114:	0f0e7fa0 	.inst	0x0f0e7fa0 ; undefined
 118:	01006176 	.inst	0x01006176 ; undefined
 11c:	000080e4 	.inst	0x000080e4 ; undefined
 120:	b0910300 	adrp	x0, ffffffff22061000 <bss_end+0xffffffff1ffe01d0>
 124:	0807007f 	stxrb	w7, wzr, [x3]
 128:	000000ac 	.inst	0x000000ac ; undefined
 12c:	0000a210 	.inst	0x0000a210 ; undefined
 130:	74db0100 	.inst	0x74db0100 ; undefined
 134:	00020809 	.inst	0x00020809 ; undefined
 138:	34000000 	cbz	w0, 138 <_start-0x207fec8>
 13c:	00000000 	.inst	0x00000000 ; undefined
 140:	01000000 	.inst	0x01000000 ; undefined
 144:	0001629c 	.inst	0x0001629c ; undefined
 148:	00700d00 	.inst	0x00700d00 ; undefined
 14c:	0077db01 	.inst	0x0077db01 ; undefined
 150:	91020000 	add	x0, x0, #0x80
 154:	00630d78 	.inst	0x00630d78 ; undefined
 158:	00acdb01 	.inst	0x00acdb01 ; undefined
 15c:	91020000 	add	x0, x0, #0x80
 160:	e70c0077 	.inst	0xe70c0077 ; undefined
 164:	01000000 	.inst	0x01000000 ; undefined
 168:	0808d4d3 	stlxrb	w8, w19, [x6]
 16c:	00000002 	.inst	0x00000002 ; undefined
 170:	0000a000 	.inst	0x0000a000 ; undefined
 174:	00000000 	.inst	0x00000000 ; undefined
 178:	9e9c0100 	.inst	0x9e9c0100 ; undefined
 17c:	0d000001 	st1	{v1.b}[0], [x0]
 180:	00746d66 	.inst	0x00746d66 ; undefined
 184:	0126d301 	.inst	0x0126d301 ; undefined
 188:	91030000 	add	x0, x0, #0xc0
 18c:	0f0e7f98 	.inst	0x0f0e7f98 ; undefined
 190:	01006176 	.inst	0x01006176 ; undefined
 194:	000080d5 	.inst	0x000080d5 ; undefined
 198:	a0910300 	.inst	0xa0910300 ; undefined
 19c:	a811007f 	stnp	xzr, x0, [x3, #272]
 1a0:	01000000 	.inst	0x01000000 ; undefined
 1a4:	08089ccd 	stlxrb	w8, w13, [x6]
 1a8:	00000002 	.inst	0x00000002 ; undefined
 1ac:	00003800 	.inst	0x00003800 ; undefined
 1b0:	00000000 	.inst	0x00000000 ; undefined
 1b4:	d89c0100 	prfm	pldl1keep, fffffffffff381d4 <bss_end+0xfffffffffdeb73a4>
 1b8:	12000001 	and	w1, w0, #0x1
 1bc:	00000007 	.inst	0x00000007 ; undefined
 1c0:	0077cd01 	.inst	0x0077cd01 ; undefined
 1c4:	91020000 	add	x0, x0, #0x80
 1c8:	008b1278 	.inst	0x008b1278 ; undefined
 1cc:	cd010000 	.inst	0xcd010000 ; undefined
 1d0:	00000096 	.inst	0x00000096 ; undefined
 1d4:	00709102 	.inst	0x00709102 ; undefined
 1d8:	0000150c 	.inst	0x0000150c ; undefined
 1dc:	547e0100 	b.eq	fc1fc <_start-0x1f83e04>  // b.none
 1e0:	00020804 	.inst	0x00020804 ; undefined
 1e4:	48000000 	stxrh	w0, w0, [x0]
 1e8:	00000004 	.inst	0x00000004 ; undefined
 1ec:	01000000 	.inst	0x01000000 ; undefined
 1f0:	0002759c 	.inst	0x0002759c ; undefined
 1f4:	00071200 	.inst	0x00071200 ; undefined
 1f8:	7e010000 	.inst	0x7e010000 ; undefined
 1fc:	00000077 	.inst	0x00000077 ; undefined
 200:	12589102 	.inst	0x12589102 ; undefined
 204:	0000008b 	.inst	0x0000008b ; undefined
 208:	008b7e01 	.inst	0x008b7e01 ; undefined
 20c:	91020000 	add	x0, x0, #0x80
 210:	6d660d50 	ldp	d16, d3, [x10, #-416]
 214:	7e010074 	.inst	0x7e010074 ; undefined
 218:	00000126 	.inst	0x00000126 ; undefined
 21c:	0d489102 	.inst	0x0d489102 ; undefined
 220:	01006176 	.inst	0x01006176 ; undefined
 224:	0000807e 	.inst	0x0000807e ; undefined
 228:	00830200 	.inst	0x00830200 ; undefined
 22c:	0066620f 	.inst	0x0066620f ; undefined
 230:	02758001 	.inst	0x02758001 ; undefined
 234:	91020000 	add	x0, x0, #0x80
 238:	68630f70 	.inst	0x68630f70 ; undefined
 23c:	ac820100 	stp	q0, q0, [x8], #64
 240:	02000000 	.inst	0x02000000 ; undefined
 244:	14137f91 	b	4e0088 <_start-0x1b9ff78>
 248:	01000001 	.inst	0x01000001 ; undefined
 24c:	08088cc9 	stlxrb	w8, w9, [x6]
 250:	00000002 	.inst	0x00000002 ; undefined
 254:	00001400 	.inst	0x00001400 ; undefined
 258:	6c0f0000 	stnp	d0, d0, [x0, #240]
 25c:	8901007a 	.inst	0x8901007a ; undefined
 260:	000000ac 	.inst	0x000000ac ; undefined
 264:	0f7e9102 	.inst	0x0f7e9102 ; undefined
 268:	8d010077 	.inst	0x8d010077 ; undefined
 26c:	00000079 	.inst	0x00000079 ; undefined
 270:	006c9102 	.inst	0x006c9102 ; undefined
 274:	00ac1500 	.inst	0x00ac1500 ; undefined
 278:	02850000 	.inst	0x02850000 ; undefined
 27c:	85160000 	.inst	0x85160000 ; undefined
 280:	0b000002 	add	w2, w0, w0
 284:	07080a00 	.inst	0x07080a00 ; undefined
 288:	00000090 	.inst	0x00000090 ; undefined
 28c:	00015817 	.inst	0x00015817 ; undefined
 290:	78710100 	ldaddlh	w17, w0, [x8]
 294:	00020803 	.inst	0x00020803 ; undefined
 298:	dc000000 	.inst	0xdc000000 ; undefined
 29c:	00000000 	.inst	0x00000000 ; undefined
 2a0:	01000000 	.inst	0x01000000 ; undefined
 2a4:	0003119c 	.inst	0x0003119c ; undefined
 2a8:	00071200 	.inst	0x00071200 ; undefined
 2ac:	71010000 	subs	w0, w0, #0x40
 2b0:	00000077 	.inst	0x00000077 ; undefined
 2b4:	12689102 	.inst	0x12689102 ; undefined
 2b8:	0000008b 	.inst	0x0000008b ; undefined
 2bc:	008b7101 	.inst	0x008b7101 ; undefined
 2c0:	91020000 	add	x0, x0, #0x80
 2c4:	006e0d60 	.inst	0x006e0d60 ; undefined
 2c8:	00797101 	.inst	0x00797101 ; undefined
 2cc:	91020000 	add	x0, x0, #0x80
 2d0:	007a0d5c 	.inst	0x007a0d5c ; undefined
 2d4:	00ac7101 	.inst	0x00ac7101 ; undefined
 2d8:	91020000 	add	x0, x0, #0x80
 2dc:	66620d5b 	.inst	0x66620d5b ; undefined
 2e0:	26710100 	.inst	0x26710100 ; undefined
 2e4:	02000001 	.inst	0x02000001 ; undefined
 2e8:	660f5091 	.inst	0x660f5091 ; undefined
 2ec:	73010063 	.inst	0x73010063 ; undefined
 2f0:	000000ac 	.inst	0x000000ac ; undefined
 2f4:	0f779102 	.inst	0x0f779102 ; undefined
 2f8:	01006863 	.inst	0x01006863 ; undefined
 2fc:	0000ac74 	.inst	0x0000ac74 ; undefined
 300:	76910200 	.inst	0x76910200 ; undefined
 304:	0100700f 	.inst	0x0100700f ; undefined
 308:	00012675 	.inst	0x00012675 ; undefined
 30c:	78910200 	ldursh	x0, [x16, #-240]
 310:	32611800 	.inst	0x32611800 ; undefined
 314:	62010069 	.inst	0x62010069 ; undefined
 318:	000000ac 	.inst	0x000000ac ; undefined
 31c:	020802cc 	.inst	0x020802cc ; undefined
 320:	00000000 	.inst	0x00000000 ; undefined
 324:	000000ac 	.inst	0x000000ac ; undefined
 328:	00000000 	.inst	0x00000000 ; undefined
 32c:	03929c01 	.inst	0x03929c01 ; undefined
 330:	630d0000 	.inst	0x630d0000 ; undefined
 334:	62010068 	.inst	0x62010068 ; undefined
 338:	000000ac 	.inst	0x000000ac ; undefined
 33c:	0d6f9102 	.inst	0x0d6f9102 ; undefined
 340:	00637273 	.inst	0x00637273 ; undefined
 344:	03926201 	.inst	0x03926201 ; undefined
 348:	91020000 	add	x0, x0, #0x80
 34c:	00d71260 	.inst	0x00d71260 ; undefined
 350:	62010000 	.inst	0x62010000 ; undefined
 354:	00000079 	.inst	0x00000079 ; undefined
 358:	12689102 	.inst	0x12689102 ; undefined
 35c:	00000106 	.inst	0x00000106 ; undefined
 360:	03986201 	.inst	0x03986201 ; undefined
 364:	91020000 	add	x0, x0, #0x80
 368:	00700f58 	.inst	0x00700f58 ; undefined
 36c:	01266401 	.inst	0x01266401 ; undefined
 370:	91020000 	add	x0, x0, #0x80
 374:	756e0f78 	.inst	0x756e0f78 ; undefined
 378:	6501006d 	.inst	0x6501006d ; undefined
 37c:	00000079 	.inst	0x00000079 ; undefined
 380:	0b749102 	.inst	0x0b749102 ; undefined
 384:	000000dc 	.inst	0x000000dc ; undefined
 388:	00796601 	.inst	0x00796601 ; undefined
 38c:	91020000 	add	x0, x0, #0x80
 390:	08070070 	stxrb	w7, w16, [x3]
 394:	00000126 	.inst	0x00000126 ; undefined
 398:	00790807 	.inst	0x00790807 ; undefined
 39c:	61190000 	.inst	0x61190000 ; undefined
 3a0:	01006432 	.inst	0x01006432 ; undefined
 3a4:	00007957 	.inst	0x00007957 ; undefined
 3a8:	08024c00 	stxrb	w2, w0, [x0]
 3ac:	00000002 	.inst	0x00000002 ; undefined
 3b0:	00008000 	.inst	0x00008000 ; undefined
 3b4:	00000000 	.inst	0x00000000 ; undefined
 3b8:	cd9c0100 	.inst	0xcd9c0100 ; undefined
 3bc:	0d000003 	st1	{v3.b}[0], [x0]
 3c0:	01006863 	.inst	0x01006863 ; undefined
 3c4:	0000ac57 	.inst	0x0000ac57 ; undefined
 3c8:	7f910200 	.inst	0x7f910200 ; undefined
 3cc:	32691a00 	.inst	0x32691a00 ; undefined
 3d0:	4e010061 	tbl	v1.16b, {v3.16b}, v1.16b
 3d4:	020801f0 	.inst	0x020801f0 ; undefined
 3d8:	00000000 	.inst	0x00000000 ; undefined
 3dc:	0000005c 	.inst	0x0000005c ; undefined
 3e0:	00000000 	.inst	0x00000000 ; undefined
 3e4:	04069c01 	.inst	0x04069c01 ; undefined
 3e8:	6e0d0000 	ext	v0.16b, v0.16b, v13.16b, #0
 3ec:	01006d75 	.inst	0x01006d75 ; undefined
 3f0:	0000794e 	.inst	0x0000794e ; undefined
 3f4:	7c910200 	.inst	0x7c910200 ; undefined
 3f8:	0066620d 	.inst	0x0066620d ; undefined
 3fc:	01264e01 	.inst	0x01264e01 ; undefined
 400:	91020000 	add	x0, x0, #0x80
 404:	4b100070 	sub	w16, w3, w16
 408:	01000001 	.inst	0x01000001 ; undefined
 40c:	0800c83c 	stlxrb	w0, w28, [x1]
 410:	00000002 	.inst	0x00000002 ; undefined
 414:	00012800 	.inst	0x00012800 ; undefined
 418:	00000000 	.inst	0x00000000 ; undefined
 41c:	929c0100 	mov	x0, #0xffffffffffff1ff7    	// #-57353
 420:	0d000004 	st1	{v4.b}[0], [x0]
 424:	006d756e 	.inst	0x006d756e ; undefined
 428:	04923c01 	.inst	0x04923c01 ; undefined
 42c:	91020000 	add	x0, x0, #0x80
 430:	00d7126c 	.inst	0x00d7126c ; undefined
 434:	3c010000 	stur	b0, [x0, #16]
 438:	00000492 	.inst	0x00000492 ; undefined
 43c:	0d689102 	.inst	0x0d689102 ; undefined
 440:	01006375 	.inst	0x01006375 ; undefined
 444:	0000793c 	.inst	0x0000793c ; undefined
 448:	64910200 	fcmla	z0.s, p0/m, z16.s, z17.s, #0
 44c:	0066620d 	.inst	0x0066620d ; undefined
 450:	01263c01 	.inst	0x01263c01 ; undefined
 454:	91020000 	add	x0, x0, #0x80
 458:	006e0f58 	.inst	0x006e0f58 ; undefined
 45c:	00793e01 	.inst	0x00793e01 ; undefined
 460:	91020000 	add	x0, x0, #0x80
 464:	00640f7c 	.inst	0x00640f7c ; undefined
 468:	04923f01 	.inst	0x04923f01 ; undefined
 46c:	91020000 	add	x0, x0, #0x80
 470:	01181b78 	.inst	0x01181b78 ; undefined
 474:	00000208 	.inst	0x00000208 ; undefined
 478:	00b80000 	.inst	0x00b80000 ; undefined
 47c:	00000000 	.inst	0x00000000 ; undefined
 480:	640f0000 	.inst	0x640f0000 ; undefined
 484:	01007467 	.inst	0x01007467 ; undefined
 488:	00007943 	.inst	0x00007943 ; undefined
 48c:	74910200 	.inst	0x74910200 ; undefined
 490:	040a0000 	smin	z0.b, p0/m, z0.b, z0.b
 494:	00009507 	.inst	0x00009507 ; undefined
 498:	011d0000 	.inst	0x011d0000 ; undefined
 49c:	00040000 	.inst	0x00040000 ; undefined
 4a0:	00000193 	.inst	0x00000193 ; undefined
 4a4:	00200108 	.inst	0x00200108 ; NYI
 4a8:	c90c0000 	.inst	0xc90c0000 ; undefined
 4ac:	69000001 	.inst	0x69000001 ; undefined
 4b0:	40000001 	.inst	0x40000001 ; undefined
 4b4:	0002080a 	.inst	0x0002080a ; undefined
 4b8:	14000000 	b	4b8 <_start-0x207fb48>
 4bc:	00000002 	.inst	0x00000002 ; undefined
 4c0:	7d000000 	str	h0, [x0]
 4c4:	02000001 	.inst	0x02000001 ; undefined
 4c8:	000001a7 	.inst	0x000001a7 ; undefined
 4cc:	0c303f01 	.inst	0x0c303f01 ; undefined
 4d0:	00000208 	.inst	0x00000208 ; undefined
 4d4:	00240000 	.inst	0x00240000 ; NYI
 4d8:	00000000 	.inst	0x00000000 ; undefined
 4dc:	9c010000 	ldr	q0, 24dc <_start-0x207db24>
 4e0:	00000063 	.inst	0x00000063 ; undefined
 4e4:	01007003 	.inst	0x01007003 ; undefined
 4e8:	0000633f 	.inst	0x0000633f ; undefined
 4ec:	78910200 	ldursh	x0, [x16, #-240]
 4f0:	01006303 	.inst	0x01006303 ; undefined
 4f4:	0000653f 	.inst	0x0000653f ; undefined
 4f8:	77910200 	.inst	0x77910200 ; undefined
 4fc:	05080400 	.inst	0x05080400 ; undefined
 500:	00e20801 	.inst	0x00e20801 ; undefined
 504:	5f020000 	.inst	0x5f020000 ; undefined
 508:	01000001 	.inst	0x01000001 ; undefined
 50c:	080b2821 	stxrb	w11, w1, [x1]
 510:	00000002 	.inst	0x00000002 ; undefined
 514:	00010800 	.inst	0x00010800 ; undefined
 518:	00000000 	.inst	0x00000000 ; undefined
 51c:	989c0100 	ldrsw	x0, fffffffffff3853c <bss_end+0xfffffffffdeb770c>
 520:	06000000 	.inst	0x06000000 ; undefined
 524:	000001ac 	.inst	0x000001ac ; undefined
 528:	00982301 	.inst	0x00982301 ; undefined
 52c:	91020000 	add	x0, x0, #0x80
 530:	0405007c 	.inst	0x0405007c ; undefined
 534:	00009507 	.inst	0x00009507 ; undefined
 538:	01d40200 	.inst	0x01d40200 ; undefined
 53c:	14010000 	b	4053c <_start-0x203fac4>
 540:	02080ac0 	.inst	0x02080ac0 ; undefined
 544:	00000000 	.inst	0x00000000 ; undefined
 548:	00000068 	.inst	0x00000068 ; undefined
 54c:	00000000 	.inst	0x00000000 ; undefined
 550:	00d79c01 	.inst	0x00d79c01 ; undefined
 554:	73030000 	.inst	0x73030000 ; undefined
 558:	01007274 	.inst	0x01007274 ; undefined
 55c:	0000d714 	.inst	0x0000d714 ; undefined
 560:	68910200 	.inst	0x68910200 ; undefined
 564:	01006307 	.inst	0x01006307 ; undefined
 568:	00006516 	.inst	0x00006516 ; undefined
 56c:	7f910200 	.inst	0x7f910200 ; undefined
 570:	65080800 	.inst	0x65080800 ; undefined
 574:	09000000 	.inst	0x09000000 ; undefined
 578:	000001b5 	.inst	0x000001b5 ; undefined
 57c:	00650b01 	.inst	0x00650b01 ; undefined
 580:	0a840000 	and	w0, w0, w4, asr #0
 584:	00000208 	.inst	0x00000208 ; undefined
 588:	003c0000 	.inst	0x003c0000 ; NYI
 58c:	00000000 	.inst	0x00000000 ; undefined
 590:	9c010000 	ldr	q0, 2590 <_start-0x207da70>
 594:	0001bf0a 	.inst	0x0001bf0a ; undefined
 598:	40040100 	.inst	0x40040100 ; undefined
 59c:	0002080a 	.inst	0x0002080a ; undefined
 5a0:	44000000 	.inst	0x44000000 ; undefined
 5a4:	00000000 	.inst	0x00000000 ; undefined
 5a8:	01000000 	.inst	0x01000000 ; undefined
 5ac:	0063039c 	.inst	0x0063039c ; undefined
 5b0:	00650401 	.inst	0x00650401 ; undefined
 5b4:	91020000 	add	x0, x0, #0x80
 5b8:	8500007f 	.inst	0x8500007f ; undefined
 5bc:	04000000 	add	z0.b, p0/m, z0.b, z0.b
 5c0:	00023b00 	.inst	0x00023b00 ; undefined
 5c4:	20010800 	.inst	0x20010800 ; undefined
 5c8:	0c000000 	st4	{v0.8b-v3.8b}, [x0]
 5cc:	000001e5 	.inst	0x000001e5 ; undefined
 5d0:	00000169 	.inst	0x00000169 ; undefined
 5d4:	02080c54 	.inst	0x02080c54 ; undefined
 5d8:	00000000 	.inst	0x00000000 ; undefined
 5dc:	000000a4 	.inst	0x000000a4 ; undefined
 5e0:	00000000 	.inst	0x00000000 ; undefined
 5e4:	000001e8 	.inst	0x000001e8 ; undefined
 5e8:	0001f402 	.inst	0x0001f402 ; undefined
 5ec:	940d0100 	bl	3409ec <_start-0x1d3f614>
 5f0:	0002080c 	.inst	0x0002080c ; undefined
 5f4:	64000000 	.inst	0x64000000 ; undefined
 5f8:	00000000 	.inst	0x00000000 ; undefined
 5fc:	01000000 	.inst	0x01000000 ; undefined
 600:	0000599c 	.inst	0x0000599c ; undefined
 604:	020e0300 	.inst	0x020e0300 ; undefined
 608:	0f010000 	.inst	0x0f010000 ; undefined
 60c:	00000059 	.inst	0x00000059 ; undefined
 610:	007c9102 	.inst	0x007c9102 ; undefined
 614:	95070404 	bl	41c1624 <bss_end+0x21407f4>
 618:	05000000 	orr	z0.s, z0.s, #0x1
 61c:	00000200 	.inst	0x00000200 ; undefined
 620:	0c540401 	.inst	0x0c540401 ; undefined
 624:	00000208 	.inst	0x00000208 ; undefined
 628:	00400000 	.inst	0x00400000 ; undefined
 62c:	00000000 	.inst	0x00000000 ; undefined
 630:	9c010000 	ldr	q0, 2630 <_start-0x207d9d0>
 634:	00020e03 	.inst	0x00020e03 ; undefined
 638:	59060100 	stlurh	w0, [x8, #96]
 63c:	02000000 	.inst	0x02000000 ; undefined
 640:	00007c91 	.inst	0x00007c91 ; undefined
 644:	00000058 	.inst	0x00000058 ; undefined
 648:	029b0004 	.inst	0x029b0004 ; undefined
 64c:	01080000 	.inst	0x01080000 ; undefined
 650:	00000020 	.inst	0x00000020 ; undefined
 654:	0002160c 	.inst	0x0002160c ; undefined
 658:	00016900 	.inst	0x00016900 ; undefined
 65c:	080cf800 	stlxrb	w12, w0, [x0]
 660:	00000002 	.inst	0x00000002 ; undefined
 664:	00005c00 	.inst	0x00005c00 ; undefined
 668:	00000000 	.inst	0x00000000 ; undefined
 66c:	00023400 	.inst	0x00023400 ; undefined
 670:	05040200 	.inst	0x05040200 ; undefined
 674:	00746e69 	.inst	0x00746e69 ; undefined
 678:	00022303 	.inst	0x00022303 ; undefined
 67c:	f8060100 	stur	x0, [x8, #96]
 680:	0002080c 	.inst	0x0002080c ; undefined
 684:	5c000000 	ldr	d0, 684 <_start-0x207f97c>
 688:	00000000 	.inst	0x00000000 ; undefined
 68c:	01000000 	.inst	0x01000000 ; undefined
 690:	6c65049c 	ldnp	d28, d1, [x4, #-432]
 694:	2d080100 	stp	s0, s0, [x8, #64]
 698:	02000000 	.inst	0x02000000 ; undefined
 69c:	00007c91 	.inst	0x00007c91 ; undefined

Disassembly of section .debug_abbrev:

0000000000000000 <.debug_abbrev>:
   0:	25011101 	cmpge	p1.b, p4/z, z8.b, #1
   4:	030b130e 	.inst	0x030b130e ; undefined
   8:	110e1b0e 	add	w14, w24, #0x386
   c:	10071201 	adr	x1, e24c <_start-0x2071db4>
  10:	02000017 	.inst	0x02000017 ; undefined
  14:	0e030016 	tbl	v22.8b, {v0.16b}, v3.8b
  18:	0b3b0b3a 	add	w26, w25, w27, uxtb #2
  1c:	00001349 	.inst	0x00001349 ; undefined
  20:	03011303 	.inst	0x03011303 ; undefined
  24:	3a0b0b0e 	.inst	0x3a0b0b0e ; undefined
  28:	010b3b0b 	.inst	0x010b3b0b ; undefined
  2c:	04000013 	add	z19.b, p0/m, z19.b, z0.b
  30:	0e03000d 	tbl	v13.8b, {v0.16b}, v3.8b
  34:	0b381349 	add	w9, w26, w24, uxtb #4
  38:	00001934 	.inst	0x00001934 ; undefined
  3c:	0b000f05 	add	w5, w24, w0, lsl #3
  40:	0600000b 	.inst	0x0600000b ; undefined
  44:	0b0b0024 	add	w4, w1, w11
  48:	08030b3e 	stxrb	w3, w30, [x25]
  4c:	0f070000 	.inst	0x0f070000 ; undefined
  50:	490b0b00 	.inst	0x490b0b00 ; undefined
  54:	08000013 	stxrb	w0, w19, [x0]
  58:	19270115 	.inst	0x19270115 ; undefined
  5c:	00001301 	.inst	0x00001301 ; undefined
  60:	49000509 	.inst	0x49000509 ; undefined
  64:	0a000013 	and	w19, w0, w0
  68:	0b0b0024 	add	w4, w1, w11
  6c:	0e030b3e 	.inst	0x0e030b3e ; undefined
  70:	340b0000 	cbz	w0, 16070 <_start-0x2069f90>
  74:	3a0e0300 	adcs	w0, w24, w14
  78:	490b3b0b 	.inst	0x490b3b0b ; undefined
  7c:	00180213 	.inst	0x00180213 ; undefined
  80:	012e0c00 	.inst	0x012e0c00 ; undefined
  84:	0e03193f 	uzp1	v31.8b, v9.8b, v3.8b
  88:	0b3b0b3a 	add	w26, w25, w27, uxtb #2
  8c:	01111927 	.inst	0x01111927 ; undefined
  90:	18400712 	ldr	w18, 80170 <_start-0x1fffe90>
  94:	01194296 	.inst	0x01194296 ; undefined
  98:	0d000013 	st1	{v19.b}[0], [x0]
  9c:	08030005 	stxrb	w3, w5, [x0]
  a0:	0b3b0b3a 	add	w26, w25, w27, uxtb #2
  a4:	18021349 	ldr	w9, 430c <_start-0x207bcf4>
  a8:	180e0000 	ldr	w0, 1c0a8 <_start-0x2063f58>
  ac:	0f000000 	.inst	0x0f000000 ; undefined
  b0:	08030034 	stxrb	w3, w20, [x1]
  b4:	0b3b0b3a 	add	w26, w25, w27, uxtb #2
  b8:	18021349 	ldr	w9, 4320 <_start-0x207bce0>
  bc:	2e100000 	ext	v0.8b, v0.8b, v16.8b, #0
  c0:	3a0e0301 	adcs	w1, w24, w14
  c4:	270b3b0b 	.inst	0x270b3b0b ; undefined
  c8:	12011119 	and	w25, w8, #0x8000000f
  cc:	97184007 	bl	fffffffffc6100e8 <bss_end+0xfffffffffa58f2b8>
  d0:	13011942 	sbfx	w2, w10, #1, #6
  d4:	2e110000 	ext	v0.8b, v0.8b, v17.8b, #0
  d8:	03193f01 	.inst	0x03193f01 ; undefined
  dc:	3b0b3a0e 	.inst	0x3b0b3a0e ; undefined
  e0:	1119270b 	add	w11, w24, #0x649
  e4:	40071201 	.inst	0x40071201 ; undefined
  e8:	19429718 	.inst	0x19429718 ; undefined
  ec:	00001301 	.inst	0x00001301 ; undefined
  f0:	03000512 	.inst	0x03000512 ; undefined
  f4:	3b0b3a0e 	.inst	0x3b0b3a0e ; undefined
  f8:	0213490b 	.inst	0x0213490b ; undefined
  fc:	13000018 	sbfx	w24, w0, #0, #1
 100:	0e03000a 	tbl	v10.8b, {v0.16b}, v3.8b
 104:	0b3b0b3a 	add	w26, w25, w27, uxtb #2
 108:	00000111 	.inst	0x00000111 ; undefined
 10c:	55010b14 	.inst	0x55010b14 ; undefined
 110:	15000017 	b	400016c <bss_end+0x1f7f33c>
 114:	13490101 	.inst	0x13490101 ; undefined
 118:	00001301 	.inst	0x00001301 ; undefined
 11c:	49002116 	.inst	0x49002116 ; undefined
 120:	000b2f13 	.inst	0x000b2f13 ; undefined
 124:	012e1700 	.inst	0x012e1700 ; undefined
 128:	0b3a0e03 	add	w3, w16, w26, uxtb #3
 12c:	19270b3b 	.inst	0x19270b3b ; undefined
 130:	07120111 	.inst	0x07120111 ; undefined
 134:	42961840 	.inst	0x42961840 ; undefined
 138:	00130119 	.inst	0x00130119 ; undefined
 13c:	012e1800 	.inst	0x012e1800 ; undefined
 140:	0b3a0803 	add	w3, w0, w26, uxtb #2
 144:	19270b3b 	.inst	0x19270b3b ; undefined
 148:	01111349 	.inst	0x01111349 ; undefined
 14c:	18400712 	ldr	w18, 8022c <_start-0x1fffdd4>
 150:	01194296 	.inst	0x01194296 ; undefined
 154:	19000013 	stlurb	w19, [x0]
 158:	0803012e 	stxrb	w3, w14, [x9]
 15c:	0b3b0b3a 	add	w26, w25, w27, uxtb #2
 160:	13491927 	.inst	0x13491927 ; undefined
 164:	07120111 	.inst	0x07120111 ; undefined
 168:	42971840 	.inst	0x42971840 ; undefined
 16c:	00130119 	.inst	0x00130119 ; undefined
 170:	012e1a00 	.inst	0x012e1a00 ; undefined
 174:	0b3a0803 	add	w3, w0, w26, uxtb #2
 178:	19270b3b 	.inst	0x19270b3b ; undefined
 17c:	07120111 	.inst	0x07120111 ; undefined
 180:	42961840 	.inst	0x42961840 ; undefined
 184:	00130119 	.inst	0x00130119 ; undefined
 188:	010b1b00 	.inst	0x010b1b00 ; undefined
 18c:	07120111 	.inst	0x07120111 ; undefined
 190:	01000000 	.inst	0x01000000 ; undefined
 194:	0e250111 	saddl	v17.8h, v8.8b, v5.8b
 198:	0e030b13 	.inst	0x0e030b13 ; undefined
 19c:	01110e1b 	.inst	0x01110e1b ; undefined
 1a0:	17100712 	b	fffffffffc401de8 <bss_end+0xfffffffffa380fb8>
 1a4:	2e020000 	ext	v0.8b, v0.8b, v2.8b, #0
 1a8:	03193f01 	.inst	0x03193f01 ; undefined
 1ac:	3b0b3a0e 	.inst	0x3b0b3a0e ; undefined
 1b0:	1119270b 	add	w11, w24, #0x649
 1b4:	40071201 	.inst	0x40071201 ; undefined
 1b8:	19429618 	.inst	0x19429618 ; undefined
 1bc:	00001301 	.inst	0x00001301 ; undefined
 1c0:	03000503 	.inst	0x03000503 ; undefined
 1c4:	3b0b3a08 	.inst	0x3b0b3a08 ; undefined
 1c8:	0213490b 	.inst	0x0213490b ; undefined
 1cc:	04000018 	add	z24.b, p0/m, z24.b, z0.b
 1d0:	0b0b000f 	add	w15, w0, w11
 1d4:	24050000 	cmphs	p0.b, p0/z, z0.b, z5.b
 1d8:	3e0b0b00 	.inst	0x3e0b0b00 ; undefined
 1dc:	000e030b 	.inst	0x000e030b ; undefined
 1e0:	00340600 	.inst	0x00340600 ; NYI
 1e4:	0b3a0e03 	add	w3, w16, w26, uxtb #3
 1e8:	13490b3b 	.inst	0x13490b3b ; undefined
 1ec:	00001802 	.inst	0x00001802 ; undefined
 1f0:	03003407 	.inst	0x03003407 ; undefined
 1f4:	3b0b3a08 	.inst	0x3b0b3a08 ; undefined
 1f8:	0213490b 	.inst	0x0213490b ; undefined
 1fc:	08000018 	stxrb	w0, w24, [x0]
 200:	0b0b000f 	add	w15, w0, w11
 204:	00001349 	.inst	0x00001349 ; undefined
 208:	3f002e09 	.inst	0x3f002e09 ; undefined
 20c:	3a0e0319 	adcs	w25, w24, w14
 210:	270b3b0b 	.inst	0x270b3b0b ; undefined
 214:	11134919 	add	w25, w8, #0x4d2
 218:	40071201 	.inst	0x40071201 ; undefined
 21c:	19429618 	.inst	0x19429618 ; undefined
 220:	2e0a0000 	ext	v0.8b, v0.8b, v10.8b, #0
 224:	03193f01 	.inst	0x03193f01 ; undefined
 228:	3b0b3a0e 	.inst	0x3b0b3a0e ; undefined
 22c:	1119270b 	add	w11, w24, #0x649
 230:	40071201 	.inst	0x40071201 ; undefined
 234:	19429618 	.inst	0x19429618 ; undefined
 238:	01000000 	.inst	0x01000000 ; undefined
 23c:	0e250111 	saddl	v17.8h, v8.8b, v5.8b
 240:	0e030b13 	.inst	0x0e030b13 ; undefined
 244:	01110e1b 	.inst	0x01110e1b ; undefined
 248:	17100712 	b	fffffffffc401e90 <bss_end+0xfffffffffa381060>
 24c:	2e020000 	ext	v0.8b, v0.8b, v2.8b, #0
 250:	03193f01 	.inst	0x03193f01 ; undefined
 254:	3b0b3a0e 	.inst	0x3b0b3a0e ; undefined
 258:	1119270b 	add	w11, w24, #0x649
 25c:	40071201 	.inst	0x40071201 ; undefined
 260:	19429618 	.inst	0x19429618 ; undefined
 264:	00001301 	.inst	0x00001301 ; undefined
 268:	03003403 	.inst	0x03003403 ; undefined
 26c:	3b0b3a0e 	.inst	0x3b0b3a0e ; undefined
 270:	0213490b 	.inst	0x0213490b ; undefined
 274:	04000018 	add	z24.b, p0/m, z24.b, z0.b
 278:	0b0b0024 	add	w4, w1, w11
 27c:	0e030b3e 	.inst	0x0e030b3e ; undefined
 280:	2e050000 	ext	v0.8b, v0.8b, v5.8b, #0
 284:	03193f01 	.inst	0x03193f01 ; undefined
 288:	3b0b3a0e 	.inst	0x3b0b3a0e ; undefined
 28c:	1119270b 	add	w11, w24, #0x649
 290:	40071201 	.inst	0x40071201 ; undefined
 294:	19429618 	.inst	0x19429618 ; undefined
 298:	01000000 	.inst	0x01000000 ; undefined
 29c:	0e250111 	saddl	v17.8h, v8.8b, v5.8b
 2a0:	0e030b13 	.inst	0x0e030b13 ; undefined
 2a4:	01110e1b 	.inst	0x01110e1b ; undefined
 2a8:	17100712 	b	fffffffffc401ef0 <bss_end+0xfffffffffa3810c0>
 2ac:	24020000 	cmphs	p0.b, p0/z, z0.b, z2.b
 2b0:	3e0b0b00 	.inst	0x3e0b0b00 ; undefined
 2b4:	0008030b 	.inst	0x0008030b ; undefined
 2b8:	012e0300 	.inst	0x012e0300 ; undefined
 2bc:	0e03193f 	uzp1	v31.8b, v9.8b, v3.8b
 2c0:	0b3b0b3a 	add	w26, w25, w27, uxtb #2
 2c4:	01111927 	.inst	0x01111927 ; undefined
 2c8:	18400712 	ldr	w18, 803a8 <_start-0x1fffc58>
 2cc:	00194296 	.inst	0x00194296 ; undefined
 2d0:	00340400 	.inst	0x00340400 ; NYI
 2d4:	0b3a0803 	add	w3, w0, w26, uxtb #2
 2d8:	13490b3b 	.inst	0x13490b3b ; undefined
 2dc:	00001802 	.inst	0x00001802 ; undefined
	...

Disassembly of section .debug_aranges:

0000000000000000 <.debug_aranges>:
   0:	0000002c 	.inst	0x0000002c ; undefined
   4:	00000002 	.inst	0x00000002 ; undefined
   8:	00080000 	.inst	0x00080000 ; undefined
   c:	00000000 	.inst	0x00000000 ; undefined
  10:	020800c8 	.inst	0x020800c8 ; undefined
  14:	00000000 	.inst	0x00000000 ; undefined
  18:	00000978 	.inst	0x00000978 ; undefined
	...
  30:	0000002c 	.inst	0x0000002c ; undefined
  34:	049a0002 	and	z2.s, p0/m, z2.s, z0.s
  38:	00080000 	.inst	0x00080000 ; undefined
  3c:	00000000 	.inst	0x00000000 ; undefined
  40:	02080a40 	.inst	0x02080a40 ; undefined
  44:	00000000 	.inst	0x00000000 ; undefined
  48:	00000214 	.inst	0x00000214 ; undefined
	...
  60:	0000002c 	.inst	0x0000002c ; undefined
  64:	05bb0002 	.inst	0x05bb0002 ; undefined
  68:	00080000 	.inst	0x00080000 ; undefined
  6c:	00000000 	.inst	0x00000000 ; undefined
  70:	02080c54 	.inst	0x02080c54 ; undefined
  74:	00000000 	.inst	0x00000000 ; undefined
  78:	000000a4 	.inst	0x000000a4 ; undefined
	...
  90:	0000002c 	.inst	0x0000002c ; undefined
  94:	06440002 	.inst	0x06440002 ; undefined
  98:	00080000 	.inst	0x00080000 ; undefined
  9c:	00000000 	.inst	0x00000000 ; undefined
  a0:	02080cf8 	.inst	0x02080cf8 ; undefined
  a4:	00000000 	.inst	0x00000000 ; undefined
  a8:	0000005c 	.inst	0x0000005c ; undefined
	...

Disassembly of section .debug_ranges:

0000000000000000 <.debug_ranges>:
   0:	000003cc 	.inst	0x000003cc ; undefined
   4:	00000000 	.inst	0x00000000 ; undefined
   8:	0000079c 	.inst	0x0000079c ; undefined
   c:	00000000 	.inst	0x00000000 ; undefined
  10:	000007c0 	.inst	0x000007c0 ; undefined
  14:	00000000 	.inst	0x00000000 ; undefined
  18:	000007c4 	.inst	0x000007c4 ; undefined
	...

Disassembly of section .debug_line:

0000000000000000 <.debug_line>:
   0:	00000179 	.inst	0x00000179 ; undefined
   4:	006c0002 	.inst	0x006c0002 ; undefined
   8:	01040000 	.inst	0x01040000 ; undefined
   c:	000d0efb 	.inst	0x000d0efb ; undefined
  10:	01010101 	.inst	0x01010101 ; undefined
  14:	01000000 	.inst	0x01000000 ; undefined
  18:	73010000 	.inst	0x73010000 ; undefined
  1c:	2f006372 	.inst	0x2f006372 ; undefined
  20:	2f727375 	.inst	0x2f727375 ; undefined
  24:	2f62696c 	umlsl	v12.4s, v11.4h, v2.h[6]
  28:	2d636367 	ldp	s7, s24, [x27, #-232]
  2c:	736f7263 	.inst	0x736f7263 ; undefined
  30:	61612f73 	.inst	0x61612f73 ; undefined
  34:	36686372 	tbz	w18, #13, ca0 <_start-0x207f360>
  38:	696c2d34 	ldpsw	x20, x11, [x9, #-160]
  3c:	2d78756e 	ldp	s14, s29, [x11, #-64]
  40:	2f756e67 	.inst	0x2f756e67 ; undefined
  44:	6e692f37 	uqsub	v23.8h, v25.8h, v9.8h
  48:	64756c63 	.inst	0x64756c63 ; undefined
  4c:	70000065 	adr	x5, 5b <_start-0x207ffa5>
  50:	746e6972 	.inst	0x746e6972 ; undefined
  54:	00632e66 	.inst	0x00632e66 ; undefined
  58:	73000001 	.inst	0x73000001 ; undefined
  5c:	72616474 	.inst	0x72616474 ; undefined
  60:	00682e67 	.inst	0x00682e67 ; undefined
  64:	3c000002 	stur	b2, [x0]
  68:	6c697562 	ldnp	d2, d29, [x11, #-368]
  6c:	6e692d74 	uqsub	v20.8h, v11.8h, v9.8h
  70:	0000003e 	.inst	0x0000003e ; undefined
  74:	09000000 	.inst	0x09000000 ; undefined
  78:	0800c802 	stlxrb	w0, w2, [x0]
  7c:	00000002 	.inst	0x00000002 ; undefined
  80:	013c0300 	.inst	0x013c0300 ; undefined
  84:	212f2159 	.inst	0x212f2159 ; undefined
  88:	4b216849 	sub	w9, w2, w1, uxtx #2
  8c:	02004b75 	.inst	0x02004b75 ; undefined
  90:	3c060104 	stur	b4, [x8, #96]
  94:	02040200 	.inst	0x02040200 ; undefined
  98:	003d063c 	.inst	0x003d063c ; NYI
  9c:	06010402 	.inst	0x06010402 ; undefined
  a0:	0402003c 	.inst	0x0402003c ; undefined
  a4:	02003c03 	.inst	0x02003c03 ; undefined
  a8:	002e0404 	.inst	0x002e0404 ; NYI
  ac:	2e020402 	.inst	0x2e020402 ; undefined
  b0:	08040200 	stxrb	w4, w0, [x16]
  b4:	04020020 	.inst	0x04020020 ; undefined
  b8:	03830608 	.inst	0x03830608 ; undefined
  bc:	09033c7a 	.inst	0x09033c7a ; undefined
  c0:	4b3f2f3c 	sub	w28, w25, wzr, uxth #3
  c4:	595a3d3d 	.inst	0x595a3d3d ; undefined
  c8:	02002f3f 	.inst	0x02002f3f ; undefined
  cc:	3c060104 	stur	b4, [x8, #96]
  d0:	003d3d06 	.inst	0x003d3d06 ; NYI
  d4:	06010402 	.inst	0x06010402 ; undefined
  d8:	3d3d063c 	str	b28, [x17, #3905]
  dc:	01040200 	.inst	0x01040200 ; undefined
  e0:	3d063c06 	str	b6, [x0, #399]
  e4:	6731213d 	.inst	0x6731213d ; undefined
  e8:	4b21223d 	sub	w29, w17, w1, uxth
  ec:	24755567 	cmphs	p7.h, p5/z, z11.h, #85
  f0:	31213d3d 	adds	w29, w9, #0x84f
  f4:	04020075 	.inst	0x04020075 ; undefined
  f8:	003c0601 	.inst	0x003c0601 ; NYI
  fc:	2e020402 	.inst	0x2e020402 ; undefined
 100:	04040200 	.inst	0x04040200 ; undefined
 104:	04020020 	.inst	0x04020020 ; undefined
 108:	00220604 	.inst	0x00220604 ; NYI
 10c:	2f040402 	mvni	v2.2s, #0x80
 110:	02003b21 	.inst	0x02003b21 ; undefined
 114:	66060104 	.inst	0x66060104 ; undefined
 118:	49213e06 	.inst	0x49213e06 ; undefined
 11c:	8449215a 	ldff1sb	{z26.s}, p0/z, [x10, z9.s, sxtw]
 120:	3d217a3f 	str	b31, [x17, #2142]
 124:	5921245a 	.inst	0x5921245a ; undefined
 128:	0030593d 	.inst	0x0030593d ; NYI
 12c:	06010402 	.inst	0x06010402 ; undefined
 130:	8a3d063c 	bic	x28, x17, x29, lsl #1
 134:	03ac2903 	.inst	0x03ac2903 ; undefined
 138:	29032057 	stp	w23, w8, [x2, #24]
 13c:	20570366 	.inst	0x20570366 ; undefined
 140:	034a2903 	.inst	0x034a2903 ; undefined
 144:	c9082060 	.inst	0xc9082060 ; undefined
 148:	9f082883 	.inst	0x9f082883 ; undefined
 14c:	24022883 	cmpeq	p3.b, p2/z, z4.b, z2.d
 150:	08228313 	.inst	0x08228313 ; undefined
 154:	e50822c9 	.inst	0xe50822c9 ; undefined
 158:	40034c22 	.inst	0x40034c22 ; undefined
 15c:	00c40320 	.inst	0x00c40320 ; undefined
 160:	20550382 	.inst	0x20550382 ; undefined
 164:	4e202c03 	sqsub	v3.16b, v0.16b, v0.16b
 168:	3f4b4b3d 	.inst	0x3f4b4b3d ; undefined
 16c:	220891a0 	.inst	0x220891a0 ; undefined
 170:	41753d3f 	.inst	0x41753d3f ; undefined
 174:	3ec991a0 	.inst	0x3ec991a0 ; undefined
 178:	01000302 	.inst	0x01000302 ; undefined
 17c:	00006701 	.inst	0x00006701 ; undefined
 180:	21000200 	.inst	0x21000200 ; undefined
 184:	04000000 	add	z0.b, p0/m, z0.b, z0.b
 188:	0d0efb01 	.inst	0x0d0efb01 ; undefined
 18c:	01010100 	.inst	0x01010100 ; undefined
 190:	00000001 	.inst	0x00000001 ; undefined
 194:	01000001 	.inst	0x01000001 ; undefined
 198:	00637273 	.inst	0x00637273 ; undefined
 19c:	72617500 	.inst	0x72617500 ; undefined
 1a0:	00632e74 	.inst	0x00632e74 ; undefined
 1a4:	00000001 	.inst	0x00000001 ; undefined
 1a8:	40020900 	.inst	0x40020900 ; undefined
 1ac:	0002080a 	.inst	0x0002080a ; undefined
 1b0:	16000000 	b	fffffffff80001b0 <bss_end+0xfffffffff5f7f380>
 1b4:	0402003d 	.inst	0x0402003d ; undefined
 1b8:	06200601 	.inst	0x06200601 ; undefined
 1bc:	303f4b68 	adr	x8, 7eb29 <_start-0x20014d7>
 1c0:	313d2275 	adds	w21, w19, #0xf48
 1c4:	3e4b213e 	.inst	0x3e4b213e ; undefined
 1c8:	7a032f3d 	.inst	0x7a032f3d ; undefined
 1cc:	323f523c 	orr	w28, w17, #0x3ffffe
 1d0:	5c4c3d4b 	ldr	d11, 98978 <_start-0x1fe7688>
 1d4:	4d3d3d4b 	.inst	0x4d3d3d4b ; undefined
 1d8:	4b4b4b4b 	sub	w11, w26, w11, lsr #18
 1dc:	4b4b4b3d 	sub	w29, w25, w11, lsr #18
 1e0:	022f4b40 	.inst	0x022f4b40 ; undefined
 1e4:	01010003 	.inst	0x01010003 ; undefined
 1e8:	00000048 	.inst	0x00000048 ; undefined
 1ec:	00250002 	.inst	0x00250002 ; NYI
 1f0:	01040000 	.inst	0x01040000 ; undefined
 1f4:	000d0efb 	.inst	0x000d0efb ; undefined
 1f8:	01010101 	.inst	0x01010101 ; undefined
 1fc:	01000000 	.inst	0x01000000 ; undefined
 200:	73010000 	.inst	0x73010000 ; undefined
 204:	00006372 	.inst	0x00006372 ; undefined
 208:	6f697067 	fcmla	v7.8h, v3.8h, v9.h[1], #270
 20c:	64656c5f 	.inst	0x64656c5f ; undefined
 210:	0100632e 	.inst	0x0100632e ; undefined
 214:	00000000 	.inst	0x00000000 ; undefined
 218:	0c540209 	.inst	0x0c540209 ; undefined
 21c:	00000208 	.inst	0x00000208 ; undefined
 220:	30160000 	adr	x0, 2c221 <_start-0x2053ddf>
 224:	3f4b3e4b 	.inst	0x3f4b3e4b ; undefined
 228:	4b3d4b30 	sub	w16, w25, w29, uxtw #2
 22c:	023d3d3d 	.inst	0x023d3d3d ; undefined
 230:	01010003 	.inst	0x01010003 ; undefined
 234:	00000046 	.inst	0x00000046 ; undefined
 238:	00230002 	.inst	0x00230002 ; NYI
 23c:	01040000 	.inst	0x01040000 ; undefined
 240:	000d0efb 	.inst	0x000d0efb ; undefined
 244:	01010101 	.inst	0x01010101 ; undefined
 248:	01000000 	.inst	0x01000000 ; undefined
 24c:	73010000 	.inst	0x73010000 ; undefined
 250:	00006372 	.inst	0x00006372 ; undefined
 254:	6e72656b 	umax	v11.8h, v11.8h, v18.8h
 258:	632e6c65 	.inst	0x632e6c65 ; undefined
 25c:	00000100 	.inst	0x00000100 ; undefined
 260:	02090000 	.inst	0x02090000 ; undefined
 264:	02080cf8 	.inst	0x02080cf8 ; undefined
 268:	00000000 	.inst	0x00000000 ; undefined
 26c:	2f593018 	.inst	0x2f593018 ; undefined
 270:	2121214e 	.inst	0x2121214e ; undefined
 274:	01040200 	.inst	0x01040200 ; undefined
 278:	0004023e 	.inst	0x0004023e ; undefined
 27c:	Address 0x000000000000027c is out of bounds.


Disassembly of section .debug_str:

0000000000000000 <.debug_str>:
   0:	6f647473 	uqshl	v19.2d, v3.2d, #36
   4:	705f7475 	adr	x21, bee93 <_start-0x1fc116d>
   8:	00707475 	.inst	0x00707475 ; undefined
   c:	72675f5f 	.inst	0x72675f5f ; undefined
  10:	706f745f 	adr	xzr, dee9b <_start-0x1fa1165>
  14:	70667400 	adr	x0, cce97 <_start-0x1fb3169>
  18:	726f665f 	.inst	0x726f665f ; undefined
  1c:	0074616d 	.inst	0x0074616d ; undefined
  20:	20554e47 	.inst	0x20554e47 ; undefined
  24:	20313143 	.inst	0x20313143 ; undefined
  28:	2e352e37 	uqsub	v23.8b, v17.8b, v21.8b
  2c:	6d2d2030 	stp	d16, d8, [x1, #-304]
  30:	656e6567 	fnmls	z7.h, p1/m, z11.h, z14.h
  34:	2d6c6172 	ldp	s18, s24, [x11, #-160]
  38:	73676572 	.inst	0x73676572 ; undefined
  3c:	6c6e6f2d 	ldnp	d13, d27, [x25, #-288]
  40:	6d2d2079 	stp	d25, d8, [x3, #-304]
  44:	7474696c 	.inst	0x7474696c ; undefined
  48:	652d656c 	.inst	0x652d656c ; undefined
  4c:	6169646e 	.inst	0x6169646e ; undefined
  50:	6d2d206e 	stp	d14, d8, [x3, #-304]
  54:	3d696261 	ldr	b1, [x19, #2648]
  58:	3436706c 	cbz	w12, 6ce64 <_start-0x201319c>
  5c:	20672d20 	.inst	0x20672d20 ; undefined
  60:	7266662d 	.inst	0x7266662d ; undefined
  64:	74736565 	.inst	0x74736565 ; undefined
  68:	69646e61 	ldpsw	x1, x27, [x19, #-224]
  6c:	5f00676e 	.inst	0x5f00676e ; undefined
  70:	756e675f 	.inst	0x756e675f ; undefined
  74:	61765f63 	.inst	0x61765f63 ; undefined
  78:	73696c5f 	.inst	0x73696c5f ; undefined
  7c:	75700074 	.inst	0x75700074 ; undefined
  80:	00666374 	.inst	0x00666374 ; undefined
  84:	6f647473 	uqshl	v19.2d, v3.2d, #36
  88:	705f7475 	adr	x21, bef17 <_start-0x1fc10e9>
  8c:	00667475 	.inst	0x00667475 ; undefined
  90:	676e6f6c 	.inst	0x676e6f6c ; undefined
  94:	736e7520 	.inst	0x736e7520 ; undefined
  98:	656e6769 	fnmls	z9.h, p1/m, z27.h, z14.h
  9c:	6e692064 	usubl2	v4.4s, v3.8h, v9.8h
  a0:	75700074 	.inst	0x75700074 ; undefined
  a4:	00706374 	.inst	0x00706374 ; undefined
  a8:	74696e69 	.inst	0x74696e69 ; undefined
  ac:	6972705f 	ldpsw	xzr, x28, [x2, #-112]
  b0:	0066746e 	.inst	0x0066746e ; undefined
  b4:	2f637273 	fcmla	v19.4h, v19.4h, v3.h[1], #270
  b8:	6e697270 	uabdl2	v16.4s, v19.8h, v9.8h
  bc:	632e6674 	.inst	0x632e6674 ; undefined
  c0:	70667400 	adr	x0, ccf43 <_start-0x1fb30bd>
  c4:	7270735f 	.inst	0x7270735f ; undefined
  c8:	66746e69 	.inst	0x66746e69 ; undefined
  cc:	675f5f00 	.inst	0x675f5f00 ; undefined
  d0:	666f5f72 	.inst	0x666f5f72 ; undefined
  d4:	62007366 	.inst	0x62007366 ; undefined
  d8:	00657361 	.inst	0x00657361 ; undefined
  dc:	69676964 	ldpsw	x4, x26, [x11, #-200]
  e0:	68630074 	.inst	0x68630074 ; undefined
  e4:	74007261 	.inst	0x74007261 ; undefined
  e8:	705f7066 	adr	x6, beef7 <_start-0x1fc1109>
  ec:	746e6972 	.inst	0x746e6972 ; undefined
  f0:	5f5f0066 	.inst	0x5f5f0066 ; undefined
  f4:	6c5f6176 	ldnp	d22, d24, [x11, #496]
  f8:	00747369 	.inst	0x00747369 ; undefined
  fc:	72765f5f 	.inst	0x72765f5f ; undefined
 100:	66666f5f 	.inst	0x66666f5f ; undefined
 104:	756e0073 	.inst	0x756e0073 ; undefined
 108:	5f00706d 	.inst	0x5f00706d ; undefined
 10c:	5f72765f 	sqshl	d31, d18, #50
 110:	00706f74 	.inst	0x00706f74 ; undefined
 114:	726f6261 	.inst	0x726f6261 ; undefined
 118:	732f0074 	.inst	0x732f0074 ; undefined
 11c:	74617263 	.inst	0x74617263 ; undefined
 120:	502f6863 	adr	x3, 5ee2e <_start-0x20211d2>
 124:	656a6f72 	fnmls	z18.h, p3/m, z27.h, z10.h
 128:	6d2f7463 	stp	d3, d29, [x3, #-272]
 12c:	736f5f79 	.inst	0x736f5f79 ; undefined
 130:	6e616e5f 	umin	v31.8h, v18.8h, v1.8h
 134:	2f69706f 	fcmla	v15.4h, v3.4h, v9.h[1], #270
 138:	70616863 	adr	x3, c2e47 <_start-0x1fbd1b9>
 13c:	73726574 	.inst	0x73726574 ; undefined
 140:	316c652f 	adds	w15, w9, #0xb19, lsl #12
 144:	746e655f 	.inst	0x746e655f ; undefined
 148:	75007972 	.inst	0x75007972 ; undefined
 14c:	00613269 	.inst	0x00613269 ; undefined
 150:	74735f5f 	.inst	0x74735f5f ; undefined
 154:	006b6361 	.inst	0x006b6361 ; undefined
 158:	63747570 	.inst	0x63747570 ; undefined
 15c:	75007768 	.inst	0x75007768 ; undefined
 160:	5f747261 	sqdmlsl	s1, h19, v4.h[3]
 164:	74696e69 	.inst	0x74696e69 ; undefined
 168:	6f682f00 	.inst	0x6f682f00 ; undefined
 16c:	642f656d 	.inst	0x642f656d ; undefined
 170:	61706565 	.inst	0x61706565 ; undefined
 174:	65442f6b 	fmaxnmv	h11, p3, z27.h
 178:	6f746b73 	umlsl2	v19.4s, v27.8h, v4.h[7]
 17c:	72502f70 	.inst	0x72502f70 ; undefined
 180:	63656a6f 	.inst	0x63656a6f ; undefined
 184:	6d2f7374 	stp	d20, d28, [x27, #-272]
 188:	736f5f79 	.inst	0x736f5f79 ; undefined
 18c:	6e616e5f 	umin	v31.8h, v18.8h, v1.8h
 190:	2f69706f 	fcmla	v15.4h, v3.4h, v9.h[1], #270
 194:	68746967 	.inst	0x68746967 ; undefined
 198:	6e2f6275 	rsubhn2	v21.16b, v19.8h, v15.8h
 19c:	706f6e61 	adr	x1, def6b <_start-0x1fa1095>
 1a0:	2d344d69 	stp	s9, s19, [x11, #-96]
 1a4:	7000736f 	adr	x15, 1013 <_start-0x207efed>
 1a8:	00637475 	.inst	0x00637475 ; undefined
 1ac:	656c6573 	fnmls	z19.h, p1/m, z11.h, z12.h
 1b0:	726f7463 	.inst	0x726f7463 ; undefined
 1b4:	72617500 	.inst	0x72617500 ; undefined
 1b8:	65725f74 	fnmla	z20.h, p7/m, z27.h, z18.h
 1bc:	75007663 	.inst	0x75007663 ; undefined
 1c0:	5f747261 	sqdmlsl	s1, h19, v4.h[3]
 1c4:	646e6573 	.inst	0x646e6573 ; undefined
 1c8:	63727300 	.inst	0x63727300 ; undefined
 1cc:	7261752f 	.inst	0x7261752f ; undefined
 1d0:	00632e74 	.inst	0x00632e74 ; undefined
 1d4:	74726175 	.inst	0x74726175 ; undefined
 1d8:	6e65735f 	uabdl2	v31.4s, v26.8h, v5.8h
 1dc:	74735f64 	.inst	0x74735f64 ; undefined
 1e0:	676e6972 	.inst	0x676e6972 ; undefined
 1e4:	63727300 	.inst	0x63727300 ; undefined
 1e8:	6970672f 	ldpsw	x15, x25, [x25, #-128]
 1ec:	656c5f6f 	fnmla	z15.h, p7/m, z27.h, z12.h
 1f0:	00632e64 	.inst	0x00632e64 ; undefined
 1f4:	6f697067 	fcmla	v7.8h, v3.8h, v9.h[1], #270
 1f8:	64656c5f 	.inst	0x64656c5f ; undefined
 1fc:	006e6f5f 	.inst	0x006e6f5f ; undefined
 200:	6f697067 	fcmla	v7.8h, v3.8h, v9.h[1], #270
 204:	64656c5f 	.inst	0x64656c5f ; undefined
 208:	696e695f 	ldpsw	xzr, x26, [x10, #-144]
 20c:	65720074 	fmla	z20.h, p0/m, z3.h, z18.h
 210:	61765f67 	.inst	0x61765f67 ; undefined
 214:	7273006c 	.inst	0x7273006c ; undefined
 218:	656b2f63 	fmls	z3.h, p3/m, z27.h, z11.h
 21c:	6c656e72 	ldnp	d18, d27, [x19, #-432]
 220:	6b00632e 	subs	w14, w25, w0, lsl #24
 224:	656e7265 	fnmls	z5.h, p4/m, z19.h, z14.h
 228:	616d5f6c 	.inst	0x616d5f6c ; undefined
 22c:	Address 0x000000000000022c is out of bounds.


Disassembly of section .comment:

0000000000000000 <.comment>:
   0:	3a434347 	ccmn	w26, w3, #0x7, mi  // mi = first
   4:	62552820 	.inst	0x62552820 ; undefined
   8:	75746e75 	.inst	0x75746e75 ; undefined
   c:	6e694c2f 	uqshl	v15.8h, v1.8h, v9.8h
  10:	206f7261 	.inst	0x206f7261 ; undefined
  14:	2e352e37 	uqsub	v23.8b, v17.8b, v21.8b
  18:	75332d30 	.inst	0x75332d30 ; undefined
  1c:	746e7562 	.inst	0x746e7562 ; undefined
  20:	317e3175 	adds	w21, w11, #0xf8c, lsl #12
  24:	34302e38 	cbz	w24, 605e8 <_start-0x201fa18>
  28:	2e372029 	usubl	v9.8h, v1.8b, v23.8b
  2c:	00302e35 	.inst	0x00302e35 ; NYI

Disassembly of section .debug_frame:

0000000000000000 <.debug_frame>:
   0:	0000000c 	.inst	0x0000000c ; undefined
   4:	ffffffff 	.inst	0xffffffff ; undefined
   8:	78040001 	sturh	w1, [x0, #64]
   c:	001f0c1e 	.inst	0x001f0c1e ; undefined
  10:	0000001c 	.inst	0x0000001c ; undefined
  14:	00000000 	.inst	0x00000000 ; undefined
  18:	020800c8 	.inst	0x020800c8 ; undefined
  1c:	00000000 	.inst	0x00000000 ; undefined
  20:	00000128 	.inst	0x00000128 ; undefined
  24:	00000000 	.inst	0x00000000 ; undefined
  28:	02300e41 	.inst	0x02300e41 ; undefined
  2c:	00000e48 	.inst	0x00000e48 ; undefined
  30:	00000024 	.inst	0x00000024 ; undefined
  34:	00000000 	.inst	0x00000000 ; undefined
  38:	020801f0 	.inst	0x020801f0 ; undefined
  3c:	00000000 	.inst	0x00000000 ; undefined
  40:	0000005c 	.inst	0x0000005c ; undefined
  44:	00000000 	.inst	0x00000000 ; undefined
  48:	9d200e41 	.inst	0x9d200e41 ; undefined
  4c:	41039e04 	.inst	0x41039e04 ; undefined
  50:	de541d0d 	.inst	0xde541d0d ; undefined
  54:	001f0cdd 	.inst	0x001f0cdd ; undefined
  58:	0000001c 	.inst	0x0000001c ; undefined
  5c:	00000000 	.inst	0x00000000 ; undefined
  60:	0208024c 	.inst	0x0208024c ; undefined
  64:	00000000 	.inst	0x00000000 ; undefined
  68:	00000080 	.inst	0x00000080 ; undefined
  6c:	00000000 	.inst	0x00000000 ; undefined
  70:	5e100e41 	.inst	0x5e100e41 ; undefined
  74:	0000000e 	.inst	0x0000000e ; undefined
  78:	00000024 	.inst	0x00000024 ; undefined
  7c:	00000000 	.inst	0x00000000 ; undefined
  80:	020802cc 	.inst	0x020802cc ; undefined
  84:	00000000 	.inst	0x00000000 ; undefined
  88:	000000ac 	.inst	0x000000ac ; undefined
  8c:	00000000 	.inst	0x00000000 ; undefined
  90:	9d400e41 	.inst	0x9d400e41 ; undefined
  94:	41079e08 	.inst	0x41079e08 ; undefined
  98:	de681d0d 	.inst	0xde681d0d ; undefined
  9c:	001f0cdd 	.inst	0x001f0cdd ; undefined
  a0:	00000024 	.inst	0x00000024 ; undefined
  a4:	00000000 	.inst	0x00000000 ; undefined
  a8:	02080378 	.inst	0x02080378 ; undefined
  ac:	00000000 	.inst	0x00000000 ; undefined
  b0:	000000dc 	.inst	0x000000dc ; undefined
  b4:	00000000 	.inst	0x00000000 ; undefined
  b8:	9d400e41 	.inst	0x9d400e41 ; undefined
  bc:	41079e08 	.inst	0x41079e08 ; undefined
  c0:	de741d0d 	.inst	0xde741d0d ; undefined
  c4:	001f0cdd 	.inst	0x001f0cdd ; undefined
  c8:	0000002c 	.inst	0x0000002c ; undefined
  cc:	00000000 	.inst	0x00000000 ; undefined
  d0:	02080454 	.inst	0x02080454 ; undefined
  d4:	00000000 	.inst	0x00000000 ; undefined
  d8:	00000448 	.inst	0x00000448 ; undefined
  dc:	00000000 	.inst	0x00000000 ; undefined
  e0:	9d600e41 	.inst	0x9d600e41 ; undefined
  e4:	410b9e0c 	.inst	0x410b9e0c ; undefined
  e8:	93411d0d 	sbfx	x13, x8, #1, #7
  ec:	010e030a 	.inst	0x010e030a ; undefined
  f0:	0cd3ddde 	.inst	0x0cd3ddde ; undefined
  f4:	0000001f 	.inst	0x0000001f ; undefined
  f8:	0000001c 	.inst	0x0000001c ; undefined
  fc:	00000000 	.inst	0x00000000 ; undefined
 100:	0208089c 	.inst	0x0208089c ; undefined
 104:	00000000 	.inst	0x00000000 ; undefined
 108:	00000038 	.inst	0x00000038 ; undefined
 10c:	00000000 	.inst	0x00000000 ; undefined
 110:	4c100e41 	.inst	0x4c100e41 ; undefined
 114:	0000000e 	.inst	0x0000000e ; undefined
 118:	0000002c 	.inst	0x0000002c ; undefined
 11c:	00000000 	.inst	0x00000000 ; undefined
 120:	020808d4 	.inst	0x020808d4 ; undefined
 124:	00000000 	.inst	0x00000000 ; undefined
 128:	000000a0 	.inst	0x000000a0 ; undefined
 12c:	00000000 	.inst	0x00000000 ; undefined
 130:	01a00e41 	.inst	0x01a00e41 ; undefined
 134:	139e149d 	extr	w29, w4, w30, #5
 138:	651d0d41 	.inst	0x651d0d41 ; undefined
 13c:	1f0cddde 	fmsub	s30, s14, s12, s23
	...
 148:	0000001c 	.inst	0x0000001c ; undefined
 14c:	00000000 	.inst	0x00000000 ; undefined
 150:	02080974 	.inst	0x02080974 ; undefined
 154:	00000000 	.inst	0x00000000 ; undefined
 158:	00000034 	.inst	0x00000034 ; undefined
 15c:	00000000 	.inst	0x00000000 ; undefined
 160:	4b100e41 	sub	w1, w18, w16, lsl #3
 164:	0000000e 	.inst	0x0000000e ; undefined
 168:	0000002c 	.inst	0x0000002c ; undefined
 16c:	00000000 	.inst	0x00000000 ; undefined
 170:	020809a8 	.inst	0x020809a8 ; undefined
 174:	00000000 	.inst	0x00000000 ; undefined
 178:	00000098 	.inst	0x00000098 ; undefined
 17c:	00000000 	.inst	0x00000000 ; undefined
 180:	01900e41 	.inst	0x01900e41 ; undefined
 184:	119e129d 	.inst	0x119e129d ; undefined
 188:	631d0d41 	.inst	0x631d0d41 ; undefined
 18c:	1f0cddde 	fmsub	s30, s14, s12, s23
	...
 198:	0000000c 	.inst	0x0000000c ; undefined
 19c:	ffffffff 	.inst	0xffffffff ; undefined
 1a0:	78040001 	sturh	w1, [x0, #64]
 1a4:	001f0c1e 	.inst	0x001f0c1e ; undefined
 1a8:	00000024 	.inst	0x00000024 ; undefined
 1ac:	00000198 	.inst	0x00000198 ; undefined
 1b0:	02080a40 	.inst	0x02080a40 ; undefined
 1b4:	00000000 	.inst	0x00000000 ; undefined
 1b8:	00000044 	.inst	0x00000044 ; undefined
 1bc:	00000000 	.inst	0x00000000 ; undefined
 1c0:	9d200e41 	.inst	0x9d200e41 ; undefined
 1c4:	41039e04 	.inst	0x41039e04 ; undefined
 1c8:	de4e1d0d 	.inst	0xde4e1d0d ; undefined
 1cc:	001f0cdd 	.inst	0x001f0cdd ; undefined
 1d0:	00000024 	.inst	0x00000024 ; undefined
 1d4:	00000198 	.inst	0x00000198 ; undefined
 1d8:	02080a84 	.inst	0x02080a84 ; undefined
 1dc:	00000000 	.inst	0x00000000 ; undefined
 1e0:	0000003c 	.inst	0x0000003c ; undefined
 1e4:	00000000 	.inst	0x00000000 ; undefined
 1e8:	9d100e41 	.inst	0x9d100e41 ; undefined
 1ec:	41019e02 	.inst	0x41019e02 ; undefined
 1f0:	de4c1d0d 	.inst	0xde4c1d0d ; undefined
 1f4:	001f0cdd 	.inst	0x001f0cdd ; undefined
 1f8:	00000024 	.inst	0x00000024 ; undefined
 1fc:	00000198 	.inst	0x00000198 ; undefined
 200:	02080ac0 	.inst	0x02080ac0 ; undefined
 204:	00000000 	.inst	0x00000000 ; undefined
 208:	00000068 	.inst	0x00000068 ; undefined
 20c:	00000000 	.inst	0x00000000 ; undefined
 210:	9d300e41 	.inst	0x9d300e41 ; undefined
 214:	41059e06 	.inst	0x41059e06 ; undefined
 218:	de571d0d 	.inst	0xde571d0d ; undefined
 21c:	001f0cdd 	.inst	0x001f0cdd ; undefined
 220:	00000024 	.inst	0x00000024 ; undefined
 224:	00000198 	.inst	0x00000198 ; undefined
 228:	02080b28 	.inst	0x02080b28 ; undefined
 22c:	00000000 	.inst	0x00000000 ; undefined
 230:	00000108 	.inst	0x00000108 ; undefined
 234:	00000000 	.inst	0x00000000 ; undefined
 238:	9d200e41 	.inst	0x9d200e41 ; undefined
 23c:	41039e04 	.inst	0x41039e04 ; undefined
 240:	de7f1d0d 	.inst	0xde7f1d0d ; undefined
 244:	001f0cdd 	.inst	0x001f0cdd ; undefined
 248:	00000024 	.inst	0x00000024 ; undefined
 24c:	00000198 	.inst	0x00000198 ; undefined
 250:	02080c30 	.inst	0x02080c30 ; undefined
 254:	00000000 	.inst	0x00000000 ; undefined
 258:	00000024 	.inst	0x00000024 ; undefined
 25c:	00000000 	.inst	0x00000000 ; undefined
 260:	9d200e41 	.inst	0x9d200e41 ; undefined
 264:	41039e04 	.inst	0x41039e04 ; undefined
 268:	de461d0d 	.inst	0xde461d0d ; undefined
 26c:	001f0cdd 	.inst	0x001f0cdd ; undefined
 270:	0000000c 	.inst	0x0000000c ; undefined
 274:	ffffffff 	.inst	0xffffffff ; undefined
 278:	78040001 	sturh	w1, [x0, #64]
 27c:	001f0c1e 	.inst	0x001f0c1e ; undefined
 280:	00000024 	.inst	0x00000024 ; undefined
 284:	00000270 	.inst	0x00000270 ; undefined
 288:	02080c54 	.inst	0x02080c54 ; undefined
 28c:	00000000 	.inst	0x00000000 ; undefined
 290:	00000040 	.inst	0x00000040 ; undefined
 294:	00000000 	.inst	0x00000000 ; undefined
 298:	9d200e41 	.inst	0x9d200e41 ; undefined
 29c:	41039e04 	.inst	0x41039e04 ; undefined
 2a0:	de4d1d0d 	.inst	0xde4d1d0d ; undefined
 2a4:	001f0cdd 	.inst	0x001f0cdd ; undefined
 2a8:	00000024 	.inst	0x00000024 ; undefined
 2ac:	00000270 	.inst	0x00000270 ; undefined
 2b0:	02080c94 	.inst	0x02080c94 ; undefined
 2b4:	00000000 	.inst	0x00000000 ; undefined
 2b8:	00000064 	.inst	0x00000064 ; undefined
 2bc:	00000000 	.inst	0x00000000 ; undefined
 2c0:	9d200e41 	.inst	0x9d200e41 ; undefined
 2c4:	41039e04 	.inst	0x41039e04 ; undefined
 2c8:	de561d0d 	.inst	0xde561d0d ; undefined
 2cc:	001f0cdd 	.inst	0x001f0cdd ; undefined
 2d0:	0000000c 	.inst	0x0000000c ; undefined
 2d4:	ffffffff 	.inst	0xffffffff ; undefined
 2d8:	78040001 	sturh	w1, [x0, #64]
 2dc:	001f0c1e 	.inst	0x001f0c1e ; undefined
 2e0:	00000024 	.inst	0x00000024 ; undefined
 2e4:	000002d0 	.inst	0x000002d0 ; undefined
 2e8:	02080cf8 	.inst	0x02080cf8 ; undefined
 2ec:	00000000 	.inst	0x00000000 ; undefined
 2f0:	0000005c 	.inst	0x0000005c ; undefined
 2f4:	00000000 	.inst	0x00000000 ; undefined
 2f8:	9d200e41 	.inst	0x9d200e41 ; undefined
 2fc:	41039e04 	.inst	0x41039e04 ; undefined
 300:	00001d0d 	.inst	0x00001d0d ; undefined
 304:	00000000 	.inst	0x00000000 ; undefined
